PRU Assembler Unix v2.1.4 Sat Apr 14 23:23:22 2018

Tools Copyright (c) 2012-2015 Texas Instruments Incorporated
main1.asm                                                            PAGE    1

       1;******************************************************************************
       2;* PRU C/C++ Codegen                                              Unix v2.1.4 *
       3;* Date/Time created: Sat Apr 14 23:23:22 2018                                *
       4;******************************************************************************
       5        .compiler_opts --abi=eabi --endian=little --hll_source=on --object_format=elf --silicon_versio
       6
       7$C$DW$CU        .dwtag  DW_TAG_compile_unit
       8        .dwattr $C$DW$CU, DW_AT_name("main1.c")
       9        .dwattr $C$DW$CU, DW_AT_producer("TI PRU C/C++ Codegen Unix v2.1.4 Copyright (c) 2012-2015 Tex
      10        .dwattr $C$DW$CU, DW_AT_TI_version(0x01)
      11        .dwattr $C$DW$CU, DW_AT_comp_dir("/var/lib/cloud9/pru_detector")
      12        .global __PRU_CREG_PRU_CFG
      13        .global __PRU_CREG_PRU_INTC
      14        .global __PRU_CREG_PRU_IEP
      15
      16$C$DW$1 .dwtag  DW_TAG_subprogram, DW_AT_name("pru_rpmsg_init")
      17        .dwattr $C$DW$1, DW_AT_TI_symbol_name("pru_rpmsg_init")
      18        .dwattr $C$DW$1, DW_AT_type(*$C$DW$T$389)
      19        .dwattr $C$DW$1, DW_AT_declaration
      20        .dwattr $C$DW$1, DW_AT_external
      21        .dwattr $C$DW$1, DW_AT_decl_file("/usr/lib/ti/pru-software-support-package/include/pru_rpmsg.h
      22        .dwattr $C$DW$1, DW_AT_decl_line(0x8c)
      23        .dwattr $C$DW$1, DW_AT_decl_column(0x09)
      24$C$DW$2 .dwtag  DW_TAG_formal_parameter
      25        .dwattr $C$DW$2, DW_AT_type(*$C$DW$T$374)
      26$C$DW$3 .dwtag  DW_TAG_formal_parameter
      27        .dwattr $C$DW$3, DW_AT_type(*$C$DW$T$375)
      28$C$DW$4 .dwtag  DW_TAG_formal_parameter
      29        .dwattr $C$DW$4, DW_AT_type(*$C$DW$T$375)
      30$C$DW$5 .dwtag  DW_TAG_formal_parameter
      31        .dwattr $C$DW$5, DW_AT_type(*$C$DW$T$32)
      32$C$DW$6 .dwtag  DW_TAG_formal_parameter
      33        .dwattr $C$DW$6, DW_AT_type(*$C$DW$T$32)
      34        .dwendtag $C$DW$1
      35
      36
      37$C$DW$7 .dwtag  DW_TAG_subprogram, DW_AT_name("pru_rpmsg_receive")
      38        .dwattr $C$DW$7, DW_AT_TI_symbol_name("pru_rpmsg_receive")
      39        .dwattr $C$DW$7, DW_AT_type(*$C$DW$T$389)
      40        .dwattr $C$DW$7, DW_AT_declaration
      41        .dwattr $C$DW$7, DW_AT_external
      42        .dwattr $C$DW$7, DW_AT_decl_file("/usr/lib/ti/pru-software-support-package/include/pru_rpmsg.h
      43        .dwattr $C$DW$7, DW_AT_decl_line(0xb2)
      44        .dwattr $C$DW$7, DW_AT_decl_column(0x09)
      45$C$DW$8 .dwtag  DW_TAG_formal_parameter
      46        .dwattr $C$DW$8, DW_AT_type(*$C$DW$T$374)
      47$C$DW$9 .dwtag  DW_TAG_formal_parameter
      48        .dwattr $C$DW$9, DW_AT_type(*$C$DW$T$378)
      49$C$DW$10        .dwtag  DW_TAG_formal_parameter
      50        .dwattr $C$DW$10, DW_AT_type(*$C$DW$T$378)
      51$C$DW$11        .dwtag  DW_TAG_formal_parameter
      52        .dwattr $C$DW$11, DW_AT_type(*$C$DW$T$3)
      53$C$DW$12        .dwtag  DW_TAG_formal_parameter
      54        .dwattr $C$DW$12, DW_AT_type(*$C$DW$T$378)
      55        .dwendtag $C$DW$7
PRU Assembler Unix v2.1.4 Sat Apr 14 23:23:22 2018

Tools Copyright (c) 2012-2015 Texas Instruments Incorporated
main1.asm                                                            PAGE    2

      56
      57
      58$C$DW$13        .dwtag  DW_TAG_subprogram, DW_AT_name("pru_rpmsg_send")
      59        .dwattr $C$DW$13, DW_AT_TI_symbol_name("pru_rpmsg_send")
      60        .dwattr $C$DW$13, DW_AT_type(*$C$DW$T$389)
      61        .dwattr $C$DW$13, DW_AT_declaration
      62        .dwattr $C$DW$13, DW_AT_external
      63        .dwattr $C$DW$13, DW_AT_decl_file("/usr/lib/ti/pru-software-support-package/include/pru_rpmsg.
      64        .dwattr $C$DW$13, DW_AT_decl_line(0xd8)
      65        .dwattr $C$DW$13, DW_AT_decl_column(0x09)
      66$C$DW$14        .dwtag  DW_TAG_formal_parameter
      67        .dwattr $C$DW$14, DW_AT_type(*$C$DW$T$374)
      68$C$DW$15        .dwtag  DW_TAG_formal_parameter
      69        .dwattr $C$DW$15, DW_AT_type(*$C$DW$T$32)
      70$C$DW$16        .dwtag  DW_TAG_formal_parameter
      71        .dwattr $C$DW$16, DW_AT_type(*$C$DW$T$32)
      72$C$DW$17        .dwtag  DW_TAG_formal_parameter
      73        .dwattr $C$DW$17, DW_AT_type(*$C$DW$T$3)
      74$C$DW$18        .dwtag  DW_TAG_formal_parameter
      75        .dwattr $C$DW$18, DW_AT_type(*$C$DW$T$327)
      76        .dwendtag $C$DW$13
      77
      78
      79$C$DW$19        .dwtag  DW_TAG_subprogram, DW_AT_name("pru_rpmsg_channel")
      80        .dwattr $C$DW$19, DW_AT_TI_symbol_name("pru_rpmsg_channel")
      81        .dwattr $C$DW$19, DW_AT_type(*$C$DW$T$389)
      82        .dwattr $C$DW$19, DW_AT_declaration
      83        .dwattr $C$DW$19, DW_AT_external
      84        .dwattr $C$DW$19, DW_AT_decl_file("/usr/lib/ti/pru-software-support-package/include/pru_rpmsg.
      85        .dwattr $C$DW$19, DW_AT_decl_line(0x104)
      86        .dwattr $C$DW$19, DW_AT_decl_column(0x09)
      87$C$DW$20        .dwtag  DW_TAG_formal_parameter
      88        .dwattr $C$DW$20, DW_AT_type(*$C$DW$T$383)
      89$C$DW$21        .dwtag  DW_TAG_formal_parameter
      90        .dwattr $C$DW$21, DW_AT_type(*$C$DW$T$374)
      91$C$DW$22        .dwtag  DW_TAG_formal_parameter
      92        .dwattr $C$DW$22, DW_AT_type(*$C$DW$T$385)
      93$C$DW$23        .dwtag  DW_TAG_formal_parameter
      94        .dwattr $C$DW$23, DW_AT_type(*$C$DW$T$385)
      95$C$DW$24        .dwtag  DW_TAG_formal_parameter
      96        .dwattr $C$DW$24, DW_AT_type(*$C$DW$T$386)
      97        .dwendtag $C$DW$19
      98
      99        .weak   ||CT_CFG||
     100 00000000                 ||CT_CFG||:     .usect  ".creg.PRU_CFG.noload.near",68,1
     101$C$DW$25        .dwtag  DW_TAG_variable, DW_AT_name("CT_CFG")
     102        .dwattr $C$DW$25, DW_AT_TI_symbol_name("CT_CFG")
     103        .dwattr $C$DW$25, DW_AT_location[DW_OP_addr ||CT_CFG||]
     104        .dwattr $C$DW$25, DW_AT_type(*$C$DW$T$354)
     105        .dwattr $C$DW$25, DW_AT_external
     106        .dwattr $C$DW$25, DW_AT_decl_file("/usr/lib/ti/pru-software-support-package/include/am335x/pru
     107        .dwattr $C$DW$25, DW_AT_decl_line(0xf2)
     108        .dwattr $C$DW$25, DW_AT_decl_column(0x17)
     109        .weak   ||CT_INTC||
     110 00000000                 ||CT_INTC||:    .usect  ".creg.PRU_INTC.noload.far",5380,1
PRU Assembler Unix v2.1.4 Sat Apr 14 23:23:22 2018

Tools Copyright (c) 2012-2015 Texas Instruments Incorporated
main1.asm                                                            PAGE    3

     111$C$DW$26        .dwtag  DW_TAG_variable, DW_AT_name("CT_INTC")
     112        .dwattr $C$DW$26, DW_AT_TI_symbol_name("CT_INTC")
     113        .dwattr $C$DW$26, DW_AT_location[DW_OP_addr ||CT_INTC||]
     114        .dwattr $C$DW$26, DW_AT_type(*$C$DW$T$359)
     115        .dwattr $C$DW$26, DW_AT_external
     116        .dwattr $C$DW$26, DW_AT_decl_file("/usr/lib/ti/pru-software-support-package/include/am335x/pru
     117        .dwattr $C$DW$26, DW_AT_decl_line(0x389)
     118        .dwattr $C$DW$26, DW_AT_decl_column(0x18)
     119        .weak   ||CT_IEP||
     120 00000000                 ||CT_IEP||:     .usect  ".creg.PRU_IEP.noload.far",796,1
     121$C$DW$27        .dwtag  DW_TAG_variable, DW_AT_name("CT_IEP")
     122        .dwattr $C$DW$27, DW_AT_TI_symbol_name("CT_IEP")
     123        .dwattr $C$DW$27, DW_AT_location[DW_OP_addr ||CT_IEP||]
     124        .dwattr $C$DW$27, DW_AT_type(*$C$DW$T$363)
     125        .dwattr $C$DW$27, DW_AT_external
     126        .dwattr $C$DW$27, DW_AT_decl_file("/usr/lib/ti/pru-software-support-package/include/am335x/pru
     127        .dwattr $C$DW$27, DW_AT_decl_line(0xfe)
     128        .dwattr $C$DW$27, DW_AT_decl_column(0x17)
     129        .global ||pru_intc_map||
     130 00000000                         .sect   ".data:pru_intc_map", RW
     131        .clink
     132        .align  1
     133        .elfsym ||pru_intc_map||,SYM_SIZE(4)
     134 00000000                 ||pru_intc_map||:
     135 00000000 00000000000012          .bits   18,8                    ; pru_intc_map[0].evt @ 0
     136 00000000 00000000000312          .bits   3,8                     ; pru_intc_map[0].ch @ 8
     137 00000000 00000000130312          .bits   19,8                    ; pru_intc_map[1].evt @ 16
     138 00000000 00000001130312          .bits   1,8                     ; pru_intc_map[1].ch @ 24
     139
     140$C$DW$28        .dwtag  DW_TAG_variable, DW_AT_name("pru_intc_map")
     141        .dwattr $C$DW$28, DW_AT_TI_symbol_name("pru_intc_map")
     142        .dwattr $C$DW$28, DW_AT_location[DW_OP_addr ||pru_intc_map||]
     143        .dwattr $C$DW$28, DW_AT_type(*$C$DW$T$402)
     144        .dwattr $C$DW$28, DW_AT_external
     145        .dwattr $C$DW$28, DW_AT_decl_file("resource_table_1.h")
     146        .dwattr $C$DW$28, DW_AT_decl_line(0x3c)
     147        .dwattr $C$DW$28, DW_AT_decl_column(0x0f)
     148        .global ||resourceTable||
     149 00000000                         .sect   ".resource_table:retain", RW
     150        .retain
     151        .align  1
     152        .elfsym ||resourceTable||,SYM_SIZE(124)
     153 00000000                 ||resourceTable||:
     154 00000000 00000000000001          .bits   1,32                    ; resourceTable.base.ver @ 0
     155 00000004 00000000000002          .bits   2,32                    ; resourceTable.base.num @ 32
     156 00000008 00000000000000          .bits   0,32                    ; resourceTable.base.reserved[0] @ 64
     157 0000000c 00000000000000          .bits   0,32                    ; resourceTable.base.reserved[1] @ 96
     158 00000010 00000000000018          .bits   24,32                   ; resourceTable.offset[0] @ 128
     159 00000014 0000000000005C          .bits   92,32                   ; resourceTable.offset[1] @ 160
     160 00000018 00000000000003          .bits   3,32                    ; resourceTable.rpmsg_vdev.type @ 192
     161 0000001c 00000000000007          .bits   7,32                    ; resourceTable.rpmsg_vdev.id @ 224
     162 00000020 00000000000000          .bits   0,32                    ; resourceTable.rpmsg_vdev.notifyid @ 256
     163 00000024 00000000000001          .bits   1,32                    ; resourceTable.rpmsg_vdev.dfeatures @ 288
     164 00000028 00000000000000          .bits   0,32                    ; resourceTable.rpmsg_vdev.gfeatures @ 320
     165 0000002c 00000000000000          .bits   0,32                    ; resourceTable.rpmsg_vdev.config_len @ 352
PRU Assembler Unix v2.1.4 Sat Apr 14 23:23:22 2018

Tools Copyright (c) 2012-2015 Texas Instruments Incorporated
main1.asm                                                            PAGE    4

     166 00000030 00000000000000          .bits   0,8                     ; resourceTable.rpmsg_vdev.status @ 384
     167 00000030 00000000000200          .bits   2,8                     ; resourceTable.rpmsg_vdev.num_of_vrings @ 392
     168 00000030 00000000000200          .bits   0,8                     ; resourceTable.rpmsg_vdev.reserved[0] @ 400
     169 00000030 00000000000200          .bits   0,8                     ; resourceTable.rpmsg_vdev.reserved[1] @ 408
     170 00000034 00000000000000          .bits   0,32                    ; resourceTable.rpmsg_vring0.da @ 416
     171 00000038 00000000000010          .bits   16,32                   ; resourceTable.rpmsg_vring0.align @ 448
     172 0000003c 00000000000010          .bits   16,32                   ; resourceTable.rpmsg_vring0.num @ 480
     173 00000040 00000000000000          .bits   0,32                    ; resourceTable.rpmsg_vring0.notifyid @ 512
     174 00000044 00000000000000          .bits   0,32                    ; resourceTable.rpmsg_vring0.reserved @ 544
     175 00000048 00000000000000          .bits   0,32                    ; resourceTable.rpmsg_vring1.da @ 576
     176 0000004c 00000000000010          .bits   16,32                   ; resourceTable.rpmsg_vring1.align @ 608
     177 00000050 00000000000010          .bits   16,32                   ; resourceTable.rpmsg_vring1.num @ 640
     178 00000054 00000000000000          .bits   0,32                    ; resourceTable.rpmsg_vring1.notifyid @ 672
     179 00000058 00000000000000          .bits   0,32                    ; resourceTable.rpmsg_vring1.reserved @ 704
     180 0000005c 00000000000005          .bits   5,32                    ; resourceTable.pru_ints.type @ 736
     181 00000060 00000000000001          .bits   1,32                    ; resourceTable.pru_ints.sub_type @ 768
     182 00000064 00000000000014          .bits   20,32                   ; resourceTable.pru_ints.rsc_size @ 800
     183 00000068 00000000000000          .bits   0,16                    ; resourceTable.pru_ints.rsc.pru_ints.version @ 832
     184 00000068 00000000FF0000          .bits   255,8                   ; resourceTable.pru_ints.rsc.pru_ints.channel_host[0] @ 848
     185 00000068 00000001FF0000          .bits   1,8                     ; resourceTable.pru_ints.rsc.pru_ints.channel_host[1] @ 856
     186 0000006c 000000000000FF          .bits   255,8                   ; resourceTable.pru_ints.rsc.pru_ints.channel_host[2] @ 864
     187 0000006c 000000000003FF          .bits   3,8                     ; resourceTable.pru_ints.rsc.pru_ints.channel_host[3] @ 872
     188 0000006c 00000000FF03FF          .bits   255,8                   ; resourceTable.pru_ints.rsc.pru_ints.channel_host[4] @ 880
     189 0000006c 000000FFFF03FF          .bits   255,8                   ; resourceTable.pru_ints.rsc.pru_ints.channel_host[5] @ 888
     190 00000070 000000000000FF          .bits   255,8                   ; resourceTable.pru_ints.rsc.pru_ints.channel_host[6] @ 896
     191 00000070 0000000000FFFF          .bits   255,8                   ; resourceTable.pru_ints.rsc.pru_ints.channel_host[7] @ 904
     192 00000070 00000000FFFFFF          .bits   255,8                   ; resourceTable.pru_ints.rsc.pru_ints.channel_host[8] @ 912
     193 00000070 000000FFFFFFFF          .bits   255,8                   ; resourceTable.pru_ints.rsc.pru_ints.channel_host[9] @ 920
     194 00000074 00000000000002          .bits   2,32                    ; resourceTable.pru_ints.rsc.pru_ints.num_evts @ 928
     195 00000078 00000000000000!         .bits   ||pru_intc_map||,32             ; resourceTable.pru_ints.rsc.pru_ints.event_channel @ 
     196
     197$C$DW$29        .dwtag  DW_TAG_variable, DW_AT_name("resourceTable")
     198        .dwattr $C$DW$29, DW_AT_TI_symbol_name("resourceTable")
     199        .dwattr $C$DW$29, DW_AT_location[DW_OP_addr ||resourceTable||]
     200        .dwattr $C$DW$29, DW_AT_type(*$C$DW$T$335)
     201        .dwattr $C$DW$29, DW_AT_external
     202        .dwattr $C$DW$29, DW_AT_decl_file("resource_table_1.h")
     203        .dwattr $C$DW$29, DW_AT_decl_line(0x50)
     204        .dwattr $C$DW$29, DW_AT_decl_column(0x1a)
     205        .global ||payload||
     206        .common ||payload||,512,1
     207$C$DW$30        .dwtag  DW_TAG_variable, DW_AT_name("payload")
     208        .dwattr $C$DW$30, DW_AT_TI_symbol_name("payload")
     209        .dwattr $C$DW$30, DW_AT_location[DW_OP_addr ||payload||]
     210        .dwattr $C$DW$30, DW_AT_type(*$C$DW$T$373)
     211        .dwattr $C$DW$30, DW_AT_external
     212        .dwattr $C$DW$30, DW_AT_decl_file("main1.c")
     213        .dwattr $C$DW$30, DW_AT_decl_line(0x45)
     214        .dwattr $C$DW$30, DW_AT_decl_column(0x09)
     215        .global ||pinMasks||
     216 00000000                         .sect   ".rodata:pinMasks"
     217        .clink
     218        .align  1
     219        .elfsym ||pinMasks||,SYM_SIZE(16)
     220 00000000                 ||pinMasks||:
PRU Assembler Unix v2.1.4 Sat Apr 14 23:23:22 2018

Tools Copyright (c) 2012-2015 Texas Instruments Incorporated
main1.asm                                                            PAGE    5

     221 00000000 00000000000040          .bits   64,32                   ; pinMasks[0] @ 0
     222 00000004 00000000000010          .bits   16,32                   ; pinMasks[1] @ 32
     223 00000008 00000000000004          .bits   4,32                    ; pinMasks[2] @ 64
     224 0000000c 00000000000001          .bits   1,32                    ; pinMasks[3] @ 96
     225
     226$C$DW$31        .dwtag  DW_TAG_variable, DW_AT_name("pinMasks")
     227        .dwattr $C$DW$31, DW_AT_TI_symbol_name("pinMasks")
     228        .dwattr $C$DW$31, DW_AT_location[DW_OP_addr ||pinMasks||]
     229        .dwattr $C$DW$31, DW_AT_type(*$C$DW$T$397)
     230        .dwattr $C$DW$31, DW_AT_external
     231        .dwattr $C$DW$31, DW_AT_decl_file("main1.c")
     232        .dwattr $C$DW$31, DW_AT_decl_line(0x54)
     233        .dwattr $C$DW$31, DW_AT_decl_column(0x10)
     234        .global ||codes||
     235        .common ||codes||,16,1
     236$C$DW$32        .dwtag  DW_TAG_variable, DW_AT_name("codes")
     237        .dwattr $C$DW$32, DW_AT_TI_symbol_name("codes")
     238        .dwattr $C$DW$32, DW_AT_location[DW_OP_addr ||codes||]
     239        .dwattr $C$DW$32, DW_AT_type(*$C$DW$T$399)
     240        .dwattr $C$DW$32, DW_AT_external
     241        .dwattr $C$DW$32, DW_AT_decl_file("main1.c")
     242        .dwattr $C$DW$32, DW_AT_decl_line(0x59)
     243        .dwattr $C$DW$32, DW_AT_decl_column(0x0a)
     244        .global ||highTime||
     245        .common ||highTime||,16,1
     246$C$DW$33        .dwtag  DW_TAG_variable, DW_AT_name("highTime")
     247        .dwattr $C$DW$33, DW_AT_TI_symbol_name("highTime")
     248        .dwattr $C$DW$33, DW_AT_location[DW_OP_addr ||highTime||]
     249        .dwattr $C$DW$33, DW_AT_type(*$C$DW$T$399)
     250        .dwattr $C$DW$33, DW_AT_external
     251        .dwattr $C$DW$33, DW_AT_decl_file("main1.c")
     252        .dwattr $C$DW$33, DW_AT_decl_line(0x5a)
     253        .dwattr $C$DW$33, DW_AT_decl_column(0x0a)
     254        .global ||lowTime||
     255        .common ||lowTime||,16,1
     256$C$DW$34        .dwtag  DW_TAG_variable, DW_AT_name("lowTime")
     257        .dwattr $C$DW$34, DW_AT_TI_symbol_name("lowTime")
     258        .dwattr $C$DW$34, DW_AT_location[DW_OP_addr ||lowTime||]
     259        .dwattr $C$DW$34, DW_AT_type(*$C$DW$T$399)
     260        .dwattr $C$DW$34, DW_AT_external
     261        .dwattr $C$DW$34, DW_AT_decl_file("main1.c")
     262        .dwattr $C$DW$34, DW_AT_decl_line(0x5b)
     263        .dwattr $C$DW$34, DW_AT_decl_column(0x0a)
     264        .global ||pulseCount||
     265        .common ||pulseCount||,16,1
     266$C$DW$35        .dwtag  DW_TAG_variable, DW_AT_name("pulseCount")
     267        .dwattr $C$DW$35, DW_AT_TI_symbol_name("pulseCount")
     268        .dwattr $C$DW$35, DW_AT_location[DW_OP_addr ||pulseCount||]
     269        .dwattr $C$DW$35, DW_AT_type(*$C$DW$T$399)
     270        .dwattr $C$DW$35, DW_AT_external
     271        .dwattr $C$DW$35, DW_AT_decl_file("main1.c")
     272        .dwattr $C$DW$35, DW_AT_decl_line(0x5c)
     273        .dwattr $C$DW$35, DW_AT_decl_column(0x0a)
     274        .global ||high||
     275        .common ||high||,4,1
PRU Assembler Unix v2.1.4 Sat Apr 14 23:23:22 2018

Tools Copyright (c) 2012-2015 Texas Instruments Incorporated
main1.asm                                                            PAGE    6

     276$C$DW$36        .dwtag  DW_TAG_variable, DW_AT_name("high")
     277        .dwattr $C$DW$36, DW_AT_TI_symbol_name("high")
     278        .dwattr $C$DW$36, DW_AT_location[DW_OP_addr ||high||]
     279        .dwattr $C$DW$36, DW_AT_type(*$C$DW$T$11)
     280        .dwattr $C$DW$36, DW_AT_external
     281        .dwattr $C$DW$36, DW_AT_decl_file("main1.c")
     282        .dwattr $C$DW$36, DW_AT_decl_line(0x5d)
     283        .dwattr $C$DW$36, DW_AT_decl_column(0x0a)
     284        .global ||active||
     285        .common ||active||,4,1
     286$C$DW$37        .dwtag  DW_TAG_variable, DW_AT_name("active")
     287        .dwattr $C$DW$37, DW_AT_TI_symbol_name("active")
     288        .dwattr $C$DW$37, DW_AT_location[DW_OP_addr ||active||]
     289        .dwattr $C$DW$37, DW_AT_type(*$C$DW$T$11)
     290        .dwattr $C$DW$37, DW_AT_external
     291        .dwattr $C$DW$37, DW_AT_decl_file("main1.c")
     292        .dwattr $C$DW$37, DW_AT_decl_line(0x5e)
     293        .dwattr $C$DW$37, DW_AT_decl_column(0x0a)
     294        .global ||printFlag||
     295        .common ||printFlag||,4,1
     296$C$DW$38        .dwtag  DW_TAG_variable, DW_AT_name("printFlag")
     297        .dwattr $C$DW$38, DW_AT_TI_symbol_name("printFlag")
     298        .dwattr $C$DW$38, DW_AT_location[DW_OP_addr ||printFlag||]
     299        .dwattr $C$DW$38, DW_AT_type(*$C$DW$T$11)
     300        .dwattr $C$DW$38, DW_AT_external
     301        .dwattr $C$DW$38, DW_AT_decl_file("main1.c")
     302        .dwattr $C$DW$38, DW_AT_decl_line(0x5f)
     303        .dwattr $C$DW$38, DW_AT_decl_column(0x0a)
     304;       optpru /tmp/024998SugFV /tmp/02499AJht9G 
     305;       acpiapru -@/tmp/02499ObASqR 
     306 00000000                         .sect   ".text:resetIEP"
     307        .clink
     308        .global ||resetIEP||
     309
     310$C$DW$39        .dwtag  DW_TAG_subprogram, DW_AT_name("resetIEP")
     311        .dwattr $C$DW$39, DW_AT_low_pc(||resetIEP||)
     312        .dwattr $C$DW$39, DW_AT_high_pc(0x00)
     313        .dwattr $C$DW$39, DW_AT_TI_symbol_name("resetIEP")
     314        .dwattr $C$DW$39, DW_AT_external
     315        .dwattr $C$DW$39, DW_AT_TI_begin_file("main1.c")
     316        .dwattr $C$DW$39, DW_AT_TI_begin_line(0x9f)
     317        .dwattr $C$DW$39, DW_AT_TI_begin_column(0x06)
     318        .dwattr $C$DW$39, DW_AT_decl_file("main1.c")
     319        .dwattr $C$DW$39, DW_AT_decl_line(0x9f)
     320        .dwattr $C$DW$39, DW_AT_decl_column(0x06)
     321        .dwattr $C$DW$39, DW_AT_TI_max_frame_size(0x00)
     322        .dwpsn  file "main1.c",line 159,column 16,is_stmt,address ||resetIEP||,isa 0
     323
     324        .dwfde $C$DW$CIE, ||resetIEP||
     325;----------------------------------------------------------------------
     326; 159 | void resetIEP(){                                                       
     327; 160 | //Reset and enable IEP timer                                           
     328; 161 | // Set counter to 0                                                    
     329;----------------------------------------------------------------------
     330
PRU Assembler Unix v2.1.4 Sat Apr 14 23:23:22 2018

Tools Copyright (c) 2012-2015 Texas Instruments Incorporated
main1.asm                                                            PAGE    7

     331;***************************************************************
     332;* FNAME: resetIEP                      FR SIZE:   0           *
     333;*                                                             *
     334;* FUNCTION ENVIRONMENT                                        *
     335;*                                                             *
     336;* FUNCTION PROPERTIES                                         *
     337;*                            0 Auto,  0 SOE     *
     338;***************************************************************
     339
     340 00000000                 ||resetIEP||:
     341;* --------------------------------------------------------------------------*
     342;* r0_0  assigned to $O$C1
     343        .dwcfi  cfa_offset, 0
     344        .dwpsn  file "main1.c",line 162,column 5,is_stmt,isa 0
     345;----------------------------------------------------------------------
     346; 162 | CT_IEP.TMR_CNT = 0x0;                                                  
     347; 163 | // Enable counter                                                      
     348;----------------------------------------------------------------------
     349 00000000 000080240000C0!         LDI32     r0, ||CT_IEP||        ; [ALU_PRU] |162| $O$C1,CT_IEP
     350 00000008 000000240000E1          LDI       r1, 0x0000            ; [ALU_PRU] |162| 
     351 0000000c 000000E10C2081          SBBO      &r1, r0, 12, 4        ; [ALU_PRU] |162| $O$C1
     352        .dwpsn  file "main1.c",line 164,column 5,is_stmt,isa 0
     353;----------------------------------------------------------------------
     354; 164 | CT_IEP.TMR_GLB_CFG = 0x11;                                             
     355;----------------------------------------------------------------------
     356 00000010 000000240011E1          LDI       r1, 0x0011            ; [ALU_PRU] |164| 
     357 00000014 000000E1002081          SBBO      &r1, r0, 0, 4         ; [ALU_PRU] |164| $O$C1
     358$C$DW$40        .dwtag  DW_TAG_TI_branch
     359        .dwattr $C$DW$40, DW_AT_low_pc(0x00)
     360        .dwattr $C$DW$40, DW_AT_TI_return
     361 00000018 00000020C30000          JMP       r3.w2                 ; [ALU_PRU] 
     362        .dwattr $C$DW$39, DW_AT_TI_end_file("main1.c")
     363        .dwattr $C$DW$39, DW_AT_TI_end_line(0xa5)
     364        .dwattr $C$DW$39, DW_AT_TI_end_column(0x01)
     365        .dwendentry
     366        .dwendtag $C$DW$39
     367
     368 00000000                         .sect   ".text:pollReceivers"
     369        .clink
     370        .global ||pollReceivers||
     371
     372$C$DW$41        .dwtag  DW_TAG_subprogram, DW_AT_name("pollReceivers")
     373        .dwattr $C$DW$41, DW_AT_low_pc(||pollReceivers||)
     374        .dwattr $C$DW$41, DW_AT_high_pc(0x00)
     375        .dwattr $C$DW$41, DW_AT_TI_symbol_name("pollReceivers")
     376        .dwattr $C$DW$41, DW_AT_external
     377        .dwattr $C$DW$41, DW_AT_TI_begin_file("main1.c")
     378        .dwattr $C$DW$41, DW_AT_TI_begin_line(0x62)
     379        .dwattr $C$DW$41, DW_AT_TI_begin_column(0x06)
     380        .dwattr $C$DW$41, DW_AT_decl_file("main1.c")
     381        .dwattr $C$DW$41, DW_AT_decl_line(0x62)
     382        .dwattr $C$DW$41, DW_AT_decl_column(0x06)
     383        .dwattr $C$DW$41, DW_AT_TI_max_frame_size(0x00)
     384        .dwpsn  file "main1.c",line 98,column 21,is_stmt,address ||pollReceivers||,isa 0
     385
PRU Assembler Unix v2.1.4 Sat Apr 14 23:23:22 2018

Tools Copyright (c) 2012-2015 Texas Instruments Incorporated
main1.asm                                                            PAGE    8

     386        .dwfde $C$DW$CIE, ||pollReceivers||
     387;----------------------------------------------------------------------
     388;  98 | void pollReceivers(){                                                  
     389;  99 | unsigned i;                                                            
     390; 100 | unsigned mask;                                                         
     391;----------------------------------------------------------------------
     392
     393;***************************************************************
     394;* FNAME: pollReceivers                 FR SIZE:   0           *
     395;*                                                             *
     396;* FUNCTION ENVIRONMENT                                        *
     397;*                                                             *
     398;* FUNCTION PROPERTIES                                         *
     399;*                            0 Auto,  0 SOE     *
     400;***************************************************************
     401
     402||pollReceivers||:
     403;* --------------------------------------------------------------------------*
     404;* r14_0 assigned to $O$C1
     405;* r14_0 assigned to $O$C2
     406;* r20_0 assigned to $O$C3
     407;* r14_0 assigned to $O$C4
     408;* r14_0 assigned to $O$C7
     409;* r1_0  assigned to $O$C9
     410;* r17_0 assigned to $O$U10
     411;* r1_0  assigned to $O$K1
     412;* r0_0  assigned to $O$U45
     413;* r15_0 assigned to $O$U7
     414;* r19_0 assigned to mask
     415$C$DW$42        .dwtag  DW_TAG_variable, DW_AT_name("mask")
     416        .dwattr $C$DW$42, DW_AT_TI_symbol_name("mask")
     417        .dwattr $C$DW$42, DW_AT_type(*$C$DW$T$11)
     418        .dwattr $C$DW$42, DW_AT_location[DW_OP_regx 0x4c]
     419;* r16_0 assigned to $O$v1
     420;* r14_0 assigned to $O$U22
     421;* r20_0 assigned to $O$U22
     422;* r14_0 assigned to $O$K28
     423;* r0_0  assigned to $O$U23
     424;* r0_0  assigned to $O$v2
     425;* r0_0  assigned to $O$v2
     426;* r0_0  assigned to $O$v2
     427        .dwcfi  cfa_offset, 0
     428        .dwpsn  file "main1.c",line 101,column 16,is_stmt,isa 0
     429;----------------------------------------------------------------------
     430; 101 | for(i = 0; i < SENSORS ; i++){                                         
     431;----------------------------------------------------------------------
     432 00000000 000000240000E1!         LDI       r1, ||high||          ; [ALU_PRU] |101| $O$C9,high
     433 00000004 000000240000F1!         LDI       r17, ||pinMasks||     ; [ALU_PRU] $O$U10,pinMasks
     434 00000008 0000002EFF818F          ZERO      &r15, 4               ; [ALU_PRU] $O$U7
     435 0000000c 000000F1002190          LBBO      &r16, r1, 0, 4        ; [ALU_PRU] |101| $O$v1,$O$C9
     436 00000010 00000031030053          LOOP      ||$C$L12||, 0x04      ; [ALU_PRU] 
     437;* --------------------------------------------------------------------------*
     438;*   BEGIN LOOP ||$C$L1||
     439;*
     440;*   Loop source line                : 101
PRU Assembler Unix v2.1.4 Sat Apr 14 23:23:22 2018

Tools Copyright (c) 2012-2015 Texas Instruments Incorporated
main1.asm                                                            PAGE    9

     441;*   Loop closing brace source line  : 156
     442;*   Known Minimum Trip Count        : 4
     443;*   Known Maximum Trip Count        : 4
     444;*   Known Max Trip Count Factor     : 4
     445;* --------------------------------------------------------------------------*
     446 00000014                 ||$C$L1||:    
     447        .dwpsn  file "main1.c",line 102,column 9,is_stmt,isa 0
     448;----------------------------------------------------------------------
     449; 102 | mask = pinMasks[i];                                                    
     450;----------------------------------------------------------------------
     451 00000014 000000F1003193          LBBO      &r19, r17, 0, 4       ; [ALU_PRU] |102| mask,$O$U10
     452        .dwpsn  file "main1.c",line 103,column 9,is_stmt,isa 0
     453;----------------------------------------------------------------------
     454; 103 | if(!(__R31 & mask)){ //inverted by transistor                          
     455;----------------------------------------------------------------------
     456 00000018 00000010FFF3E0          AND       r0, r19, r31          ; [ALU_PRU] |103| mask
     457 0000001c 0000006900E01A          QBNE      ||$C$L6||, r0, 0x00   ; [ALU_PRU] |103| 
     458;* --------------------------------------------------------------------------*
     459 00000020 000000240000E0!         LDI       r0, ||highTime||      ; [ALU_PRU] highTime
     460 00000024 00000000E0EFEE          ADD       r14, r15, r0          ; [ALU_PRU] $O$U22,$O$U7
     461        .dwpsn  file "main1.c",line 104,column 13,is_stmt,isa 0
     462;----------------------------------------------------------------------
     463; 104 | if(! (high & mask)){ //first high                                      
     464; 105 |     high |= mask;                                                      
     465; 106 |     highTime[i] = 0;                                                   
     466; 107 |     //any logic on lowtime                                             
     467; 108 | } else{  //all other high polls                                        
     468;----------------------------------------------------------------------
     469 00000028 00000010F0F3E0          AND       r0, r19, r16          ; [ALU_PRU] |104| mask,$O$v1
     470 0000002c 0000005100E012          QBEQ      ||$C$L5||, r0, 0x00   ; [ALU_PRU] |104| 
     471;* --------------------------------------------------------------------------*
     472        .dwpsn  file "main1.c",line 109,column 17,is_stmt,isa 0
     473;----------------------------------------------------------------------
     474; 109 | highTime[i] += RESOLUTION;                                             
     475; 110 | if(highTime[i] > MAXPULSE){                                            
     476;----------------------------------------------------------------------
     477 00000030 000000F1002E80          LBBO      &r0, r14, 0, 4        ; [ALU_PRU] |109| $O$U22
     478 00000034 000000010AE0E0          ADD       r0, r0, 0x0a          ; [ALU_PRU] |109| 
     479 00000038 000000E1002E80          SBBO      &r0, r14, 0, 4        ; [ALU_PRU] |109| $O$U22
     480 0000003c 000000242710EE          LDI       r14, 0x2710           ; [ALU_PRU] |109| 
     481 00000040 00000058E0EE45          QBLE      ||$C$L11||, r14, r0   ; [ALU_PRU] |109| 
     482;* --------------------------------------------------------------------------*
     483        .dwpsn  file "main1.c",line 111,column 21,is_stmt,isa 0
     484;----------------------------------------------------------------------
     485; 111 | if(active & mask){                                                     
     486;----------------------------------------------------------------------
     487 00000044 000000240000EE!         LDI       r14, ||active||       ; [ALU_PRU] |111| $O$C7,active
     488 00000048 000000F1002E80          LBBO      &r0, r14, 0, 4        ; [ALU_PRU] |111| $O$v2,$O$C7
     489 0000004c 00000010E0F3F4          AND       r20, r19, r0          ; [ALU_PRU] |111| mask,$O$v2
     490 00000050 0000005100F441          QBEQ      ||$C$L11||, r20, 0x00 ; [ALU_PRU] |111| 
     491;* --------------------------------------------------------------------------*
     492 00000054                 ||$C$L2||:    
     493        .dwpsn  file "main1.c",line 112,column 24,is_stmt,isa 0
     494;----------------------------------------------------------------------
     495; 112 | active &= ~mask;                                                       
PRU Assembler Unix v2.1.4 Sat Apr 14 23:23:22 2018

Tools Copyright (c) 2012-2015 Texas Instruments Incorporated
main1.asm                                                            PAGE   10

     496; 113 |  //verify                                                              
     497; 114 |  //print - warning the timing of this will effect concurrent reads!    
     498;----------------------------------------------------------------------
     499 00000054 0000001600F3F4          NOT       r20, r19              ; [ALU_PRU] |112| mask
     500 00000058 00000010F4E0E0          AND       r0, r0, r20           ; [ALU_PRU] |112| $O$v2,$O$v2
     501 0000005c 000000E1002E80          SBBO      &r0, r14, 0, 4        ; [ALU_PRU] |112| $O$K28,$O$v2
     502        .dwpsn  file "main1.c",line 116,column 22,is_stmt,isa 0
     503;----------------------------------------------------------------------
     504; 116 | printFlag |= mask;                                                     
     505; 121 | } else {                                                               
     506;----------------------------------------------------------------------
     507 00000060 000000240000EE!         LDI       r14, ||printFlag||    ; [ALU_PRU] |116| printFlag
     508 00000064 000000F1002E80          LBBO      &r0, r14, 0, 4        ; [ALU_PRU] |116| 
     509;* --------------------------------------------------------------------------*
     510 00000068                 ||$C$L3||:    
     511 00000068 00000012F3E0E0          OR        r0, r0, r19           ; [ALU_PRU] |116| mask
     512;* --------------------------------------------------------------------------*
     513 0000006c                 ||$C$L4||:    
     514 0000006c 000000E1002E80          SBBO      &r0, r14, 0, 4        ; [ALU_PRU] |116| 
     515 00000070 00000021000000!         JMP       ||$C$L11||            ; [ALU_PRU] |116| 
     516;* --------------------------------------------------------------------------*
     517 00000074                 ||$C$L5||:    
     518        .dwpsn  file "main1.c",line 105,column 17,is_stmt,isa 0
     519 00000074 00000012F3F0F0          OR        r16, r16, r19         ; [ALU_PRU] |105| $O$v1,$O$v1,mask
     520        .dwpsn  file "main1.c",line 106,column 17,is_stmt,isa 0
     521 00000078 000000240000E0          LDI       r0, 0x0000            ; [ALU_PRU] |106| 
     522        .dwpsn  file "main1.c",line 105,column 17,is_stmt,isa 0
     523 0000007c 000000E1002190          SBBO      &r16, r1, 0, 4        ; [ALU_PRU] |105| $O$K1,$O$v1
     524        .dwpsn  file "main1.c",line 108,column 13,is_stmt,isa 0
     525 00000080 00000021000000!         JMP       ||$C$L4||             ; [ALU_PRU] |108| 
     526;* --------------------------------------------------------------------------*
     527 00000084                 ||$C$L6||:    
     528 00000084 000000240000E0!         LDI       r0, ||lowTime||       ; [ALU_PRU] lowTime
     529        .dwpsn  file "main1.c",line 122,column 13,is_stmt,isa 0
     530;----------------------------------------------------------------------
     531; 122 | if(high & mask){//first low                                            
     532; 123 |     high &= ~mask;                                                     
     533; 124 |     lowTime[i] = 0;                                                    
     534; 125 |       if(! (active & mask)){ //in range, not currently active          
     535; 126 |         //check if in range for start signal -> active = true          
     536; 127 |         if(highTime[i] >= MIN_START && highTime[i] <= MAX_START){      
     537; 128 |             active |= mask;                                            
     538; 130 |     } else{ //in range and actively listening                          
     539; 131 |         //if in range for high, shift in 1 to code                     
     540; 132 |         if(highTime[i] >= MIN_HIGH && highTime[i] <= MAX_HIGH){        
     541; 133 |             codes[i] = (codes[i] << 1) + 1;                            
     542; 135 |         //if in range for low, shift in 0 to code                      
     543; 136 |         if(highTime[i] >= MIN_LOW && highTime[i] <= MAX_LOW){          
     544; 137 |             codes[i] <<= 1;                                            
     545; 139 |         //else, discard code as bad data                               
     546; 142 | }//end first low                                                       
     547; 143 | else{//not first low                                                   
     548;----------------------------------------------------------------------
     549 00000088 00000010F3F0EE          AND       r14, r16, r19         ; [ALU_PRU] |122| $O$v1,mask
     550 0000008c 00000000E0EFE0          ADD       r0, r15, r0           ; [ALU_PRU] $O$U45,$O$U7
PRU Assembler Unix v2.1.4 Sat Apr 14 23:23:22 2018

Tools Copyright (c) 2012-2015 Texas Instruments Incorporated
main1.asm                                                            PAGE   11

     551 00000090 0000006900EE0E          QBNE      ||$C$L8||, r14, 0x00  ; [ALU_PRU] |122| 
     552;* --------------------------------------------------------------------------*
     553        .dwpsn  file "main1.c",line 144,column 17,is_stmt,isa 0
     554;----------------------------------------------------------------------
     555; 144 | lowTime[i]+=RESOLUTION;                                                
     556; 145 | //   Serial.println(lowTime[pin]);                                     
     557; 146 |  //if low for too long, end of code. verify code is valid and then prin
     558;     | t                                                                      
     559;----------------------------------------------------------------------
     560 00000094 000000F100208E          LBBO      &r14, r0, 0, 4        ; [ALU_PRU] |144| $O$U45
     561 00000098 000000010AEEEE          ADD       r14, r14, 0x0a        ; [ALU_PRU] |144| 
     562 0000009c 000000E100208E          SBBO      &r14, r0, 0, 4        ; [ALU_PRU] |144| $O$U45
     563 000000a0 000000242710E0          LDI       r0, 0x2710            ; [ALU_PRU] |144| 
     564 000000a4 00000060EEE004          QBGT      ||$C$L7||, r0, r14    ; [ALU_PRU] |144| 
     565;* --------------------------------------------------------------------------*
     566        .dwpsn  file "main1.c",line 147,column 17,is_stmt,isa 0
     567;----------------------------------------------------------------------
     568; 147 | if((lowTime[i] > MAXPULSE || pulseCount[i] >= 16) && (active & mask)){ 
     569; 148 |     active &= ~mask;                                                   
     570; 149 |     //verify                                                           
     571; 150 |     //print - warning the timing of this will effect concurrent reads! 
     572;----------------------------------------------------------------------
     573 000000a8 000000240000E0!         LDI       r0, ||pulseCount||    ; [ALU_PRU] |147| pulseCount
     574 000000ac 000000F0EF2080          LBBO      &r0, r0, r15, 4       ; [ALU_PRU] |147| $O$U7
     575 000000b0 0000006110E029          QBGT      ||$C$L11||, r0, 0x10  ; [ALU_PRU] |147| 
     576;* --------------------------------------------------------------------------*
     577 000000b4                 ||$C$L7||:    
     578 000000b4 000000240000EE!         LDI       r14, ||active||       ; [ALU_PRU] $O$C4,active
     579 000000b8 000000F1002E80          LBBO      &r0, r14, 0, 4        ; [ALU_PRU] $O$v2,$O$C4
     580 000000bc 00000010F3E0F4          AND       r20, r0, r19          ; [ALU_PRU] |147| $O$v2,mask
     581 000000c0 0000005100F425          QBEQ      ||$C$L11||, r20, 0x00 ; [ALU_PRU] |147| 
     582;* --------------------------------------------------------------------------*
     583        .dwpsn  file "main1.c",line 151,column 21,is_stmt,isa 0
     584;----------------------------------------------------------------------
     585; 151 | printFlag |= mask;                                                     
     586;----------------------------------------------------------------------
     587 000000c4 00000021000000!         JMP       ||$C$L2||             ; [ALU_PRU] |151| 
     588;* --------------------------------------------------------------------------*
     589 000000c8                 ||$C$L8||:    
     590        .dwpsn  file "main1.c",line 123,column 17,is_stmt,isa 0
     591 000000c8 0000001600F3EE          NOT       r14, r19              ; [ALU_PRU] |123| mask
     592 000000cc 000000240000F4!         LDI       r20, ||highTime||     ; [ALU_PRU] highTime
     593 000000d0 00000010EEF0F0          AND       r16, r16, r14         ; [ALU_PRU] |123| $O$v1,$O$v1
     594 000000d4 000000E1002190          SBBO      &r16, r1, 0, 4        ; [ALU_PRU] |123| $O$K1,$O$v1
     595        .dwpsn  file "main1.c",line 124,column 17,is_stmt,isa 0
     596 000000d8 000000240000EE          LDI       r14, 0x0000           ; [ALU_PRU] |124| 
     597 000000dc 00000000F4EFF4          ADD       r20, r15, r20         ; [ALU_PRU] $O$U22,$O$U7
     598 000000e0 000000E100208E          SBBO      &r14, r0, 0, 4        ; [ALU_PRU] |124| $O$U45
     599        .dwpsn  file "main1.c",line 125,column 19,is_stmt,isa 0
     600 000000e4 000000240000EE!         LDI       r14, ||active||       ; [ALU_PRU] |125| $O$C2,active
     601 000000e8 000000F1002E80          LBBO      &r0, r14, 0, 4        ; [ALU_PRU] |125| $O$v2,$O$C2
     602 000000ec 00000010F3E0F5          AND       r21, r0, r19          ; [ALU_PRU] |125| $O$v2,mask
     603 000000f0 0000006900F507          QBNE      ||$C$L9||, r21, 0x00  ; [ALU_PRU] |125| 
     604;* --------------------------------------------------------------------------*
     605        .dwpsn  file "main1.c",line 127,column 21,is_stmt,isa 0
PRU Assembler Unix v2.1.4 Sat Apr 14 23:23:22 2018

Tools Copyright (c) 2012-2015 Texas Instruments Incorporated
main1.asm                                                            PAGE   12

     606 000000f4 000000F1003494          LBBO      &r20, r20, 0, 4       ; [ALU_PRU] |127| $O$C3,$O$U22
     607 000000f8 000000240DACF5          LDI       r21, 0x0dac           ; [ALU_PRU] |127| 
     608 000000fc 00000048F4F516          QBLT      ||$C$L11||, r21, r20  ; [ALU_PRU] |127| $O$C3
     609;* --------------------------------------------------------------------------*
     610 00000100 000000241388F5          LDI       r21, 0x1388           ; [ALU_PRU] |127| 
     611 00000104 00000060F4F514          QBGT      ||$C$L11||, r21, r20  ; [ALU_PRU] |127| $O$C3
     612;* --------------------------------------------------------------------------*
     613        .dwpsn  file "main1.c",line 128,column 25,is_stmt,isa 0
     614 00000108 00000021000000!         JMP       ||$C$L3||             ; [ALU_PRU] |128| 
     615;* --------------------------------------------------------------------------*
     616 0000010c                 ||$C$L9||:    
     617        .dwpsn  file "main1.c",line 132,column 21,is_stmt,isa 0
     618 0000010c 000000F1003480          LBBO      &r0, r20, 0, 4        ; [ALU_PRU] |132| $O$U23,$O$U22
     619 00000110 0000002404B0EE          LDI       r14, 0x04b0           ; [ALU_PRU] |132| 
     620 00000114 00000048E0EE09          QBLT      ||$C$L10||, r14, r0   ; [ALU_PRU] |132| $O$U23
     621;* --------------------------------------------------------------------------*
     622 00000118 0000002407D0EE          LDI       r14, 0x07d0           ; [ALU_PRU] |132| 
     623 0000011c 00000060E0EE07          QBGT      ||$C$L10||, r14, r0   ; [ALU_PRU] |132| $O$U23
     624;* --------------------------------------------------------------------------*
     625        .dwpsn  file "main1.c",line 133,column 25,is_stmt,isa 0
     626 00000120 000000240000EE!         LDI       r14, ||codes||        ; [ALU_PRU] |133| codes
     627 00000124 00000000EEEFEE          ADD       r14, r15, r14         ; [ALU_PRU] |133| $O$C1,$O$U7
     628 00000128 000000F1002E93          LBBO      &r19, r14, 0, 4       ; [ALU_PRU] |133| $O$C1
     629 0000012c 0000000901F3F3          LSL       r19, r19, 0x01        ; [ALU_PRU] |133| 
     630 00000130 0000000101F3F3          ADD       r19, r19, 0x01        ; [ALU_PRU] |133| 
     631 00000134 000000E1002E93          SBBO      &r19, r14, 0, 4       ; [ALU_PRU] |133| $O$C1
     632;* --------------------------------------------------------------------------*
     633 00000138                 ||$C$L10||:    
     634        .dwpsn  file "main1.c",line 136,column 21,is_stmt,isa 0
     635 00000138 0000006164E007          QBGT      ||$C$L11||, r0, 0x64  ; [ALU_PRU] |136| $O$U23
     636;* --------------------------------------------------------------------------*
     637 0000013c 000000240320EE          LDI       r14, 0x0320           ; [ALU_PRU] |136| 
     638 00000140 00000060E0EE05          QBGT      ||$C$L11||, r14, r0   ; [ALU_PRU] |136| $O$U23
     639;* --------------------------------------------------------------------------*
     640        .dwpsn  file "main1.c",line 137,column 25,is_stmt,isa 0
     641 00000144 000000240000E0!         LDI       r0, ||codes||         ; [ALU_PRU] |137| codes
     642 00000148 000000F0E02F8E          LBBO      &r14, r15, r0, 4      ; [ALU_PRU] |137| $O$U7
     643 0000014c 0000000901EEEE          LSL       r14, r14, 0x01        ; [ALU_PRU] |137| 
     644 00000150 000000E0E02F8E          SBBO      &r14, r15, r0, 4      ; [ALU_PRU] |137| $O$U7
     645;* --------------------------------------------------------------------------*
     646 00000154                 ||$C$L11||:    
     647        .dwpsn  file "main1.c",line 101,column 16,is_stmt,isa 0
     648 00000154 0000000104EFEF          ADD       r15, r15, 0x04        ; [ALU_PRU] |101| $O$U7,$O$U7
     649 00000158 0000000104F1F1          ADD       r17, r17, 0x04        ; [ALU_PRU] |101| $O$U10,$O$U10
     650        ; END LOOP ; [] |101| 
     651;* --------------------------------------------------------------------------*
     652||$C$L12||:    
     653$C$DW$43        .dwtag  DW_TAG_TI_branch
     654        .dwattr $C$DW$43, DW_AT_low_pc(0x00)
     655        .dwattr $C$DW$43, DW_AT_TI_return
     656 0000015c 00000020C30000          JMP       r3.w2                 ; [ALU_PRU] 
     657        .dwattr $C$DW$41, DW_AT_TI_end_file("main1.c")
     658        .dwattr $C$DW$41, DW_AT_TI_end_line(0x9d)
     659        .dwattr $C$DW$41, DW_AT_TI_end_column(0x01)
     660        .dwendentry
PRU Assembler Unix v2.1.4 Sat Apr 14 23:23:22 2018

Tools Copyright (c) 2012-2015 Texas Instruments Incorporated
main1.asm                                                            PAGE   13

     661        .dwendtag $C$DW$41
     662
     663 00000000                         .sect   ".text:main"
     664        .clink
     665        .global ||main||
     666
     667$C$DW$44        .dwtag  DW_TAG_subprogram, DW_AT_name("main")
     668        .dwattr $C$DW$44, DW_AT_low_pc(||main||)
     669        .dwattr $C$DW$44, DW_AT_high_pc(0x00)
     670        .dwattr $C$DW$44, DW_AT_TI_symbol_name("main")
     671        .dwattr $C$DW$44, DW_AT_external
     672        .dwattr $C$DW$44, DW_AT_TI_begin_file("main1.c")
     673        .dwattr $C$DW$44, DW_AT_TI_begin_line(0xaa)
     674        .dwattr $C$DW$44, DW_AT_TI_begin_column(0x06)
     675        .dwattr $C$DW$44, DW_AT_decl_file("main1.c")
     676        .dwattr $C$DW$44, DW_AT_decl_line(0xaa)
     677        .dwattr $C$DW$44, DW_AT_decl_column(0x06)
     678        .dwattr $C$DW$44, DW_AT_TI_max_frame_size(0x6c)
     679        .dwpsn  file "main1.c",line 171,column 1,is_stmt,address ||main||,isa 0
     680
     681        .dwfde $C$DW$CIE, ||main||
     682;----------------------------------------------------------------------
     683; 170 | void main(void)                                                        
     684; 172 | struct pru_rpmsg_transport transport;                                  
     685; 173 | uint16_t src, dst, len;                                                
     686; 174 | volatile uint8_t *status;                                              
     687;----------------------------------------------------------------------
     688
     689;***************************************************************
     690;* FNAME: main                          FR SIZE: 108           *
     691;*                                                             *
     692;* FUNCTION ENVIRONMENT                                        *
     693;*                                                             *
     694;* FUNCTION PROPERTIES                                         *
     695;*                           66 Auto, 42 SOE     *
     696;***************************************************************
     697
     698||main||:
     699;* --------------------------------------------------------------------------*
     700;* r0_0  assigned to $O$v1
     701;* r14_0 assigned to $O$S1
     702$C$DW$45        .dwtag  DW_TAG_variable, DW_AT_name("src")
     703        .dwattr $C$DW$45, DW_AT_TI_symbol_name("src")
     704        .dwattr $C$DW$45, DW_AT_type(*$C$DW$T$327)
     705        .dwattr $C$DW$45, DW_AT_location[DW_OP_breg8 0]
     706$C$DW$46        .dwtag  DW_TAG_variable, DW_AT_name("dst")
     707        .dwattr $C$DW$46, DW_AT_TI_symbol_name("dst")
     708        .dwattr $C$DW$46, DW_AT_type(*$C$DW$T$327)
     709        .dwattr $C$DW$46, DW_AT_location[DW_OP_breg8 2]
     710$C$DW$47        .dwtag  DW_TAG_variable, DW_AT_name("len")
     711        .dwattr $C$DW$47, DW_AT_TI_symbol_name("len")
     712        .dwattr $C$DW$47, DW_AT_type(*$C$DW$T$327)
     713        .dwattr $C$DW$47, DW_AT_location[DW_OP_breg8 4]
     714;* r1_0  assigned to bit
     715$C$DW$48        .dwtag  DW_TAG_variable, DW_AT_name("bit")
PRU Assembler Unix v2.1.4 Sat Apr 14 23:23:22 2018

Tools Copyright (c) 2012-2015 Texas Instruments Incorporated
main1.asm                                                            PAGE   14

     716        .dwattr $C$DW$48, DW_AT_TI_symbol_name("bit")
     717        .dwattr $C$DW$48, DW_AT_type(*$C$DW$T$11)
     718        .dwattr $C$DW$48, DW_AT_location[DW_OP_reg4]
     719;* r12_1 assigned to i
     720$C$DW$49        .dwtag  DW_TAG_variable, DW_AT_name("i")
     721        .dwattr $C$DW$49, DW_AT_TI_symbol_name("i")
     722        .dwattr $C$DW$49, DW_AT_type(*$C$DW$T$323)
     723        .dwattr $C$DW$49, DW_AT_location[DW_OP_regx 0x31]
     724;* r10_0 assigned to $O$U78
     725;* r11_0 assigned to $O$K135
     726;* r4_0  assigned to $O$K109
     727;* r13_0 assigned to $O$K106
     728;* r0_0  assigned to $O$U100
     729;* r15_0 assigned to $O$U94
     730;* r9_0  assigned to $O$U81
     731;* r12_0 assigned to $O$K89
     732;* r8_0  assigned to $O$K50
     733;* r7_0  assigned to $O$K72
     734;* r0_0  assigned to $O$U60
     735;* r4_0  assigned to $O$K56
     736;* r5_0  assigned to $O$K37
     737;* r6_0  assigned to $O$K4
     738;* r0_0  assigned to $O$K12
     739$C$DW$50        .dwtag  DW_TAG_variable, DW_AT_name("transport")
     740        .dwattr $C$DW$50, DW_AT_TI_symbol_name("transport")
     741        .dwattr $C$DW$50, DW_AT_type(*$C$DW$T$336)
     742        .dwattr $C$DW$50, DW_AT_location[DW_OP_breg8 6]
     743        .dwcfi  cfa_offset, 0
     744 00000000 000000056CE2E2          SUB       r2, r2, 0x6c          ; [ALU_PRU] 
     745        .dwcfi  cfa_offset, 108
     746        .dwpsn  file "main1.c",line 177,column 2,is_stmt,isa 0
     747;----------------------------------------------------------------------
     748; 177 | CT_CFG.SYSCFG_bit.STANDBY_INIT = 0;                                    
     749;----------------------------------------------------------------------
     750 00000004 00000091042080!         LBCO      &r0, __PRU_CREG_PRU_CFG, $CSBREL(||CT_CFG||+4), 4 ; [ALU_PRU] |177| CT_CFG
     751 00000008 000000E54282C3          SBBO      &r3.b2, r2, 66, 42    ; [ALU_PRU] 
     752        .dwcfi  save_reg_to_mem, 14, -42
     753        .dwcfi  save_reg_to_mem, 15, -41
     754        .dwcfi  save_reg_to_mem, 16, -40
     755        .dwcfi  save_reg_to_mem, 17, -39
     756        .dwcfi  save_reg_to_mem, 18, -38
     757        .dwcfi  save_reg_to_mem, 19, -37
     758        .dwcfi  save_reg_to_mem, 20, -36
     759        .dwcfi  save_reg_to_mem, 21, -35
     760        .dwcfi  save_reg_to_mem, 22, -34
     761        .dwcfi  save_reg_to_mem, 23, -33
     762        .dwcfi  save_reg_to_mem, 24, -32
     763        .dwcfi  save_reg_to_mem, 25, -31
     764        .dwcfi  save_reg_to_mem, 26, -30
     765        .dwcfi  save_reg_to_mem, 27, -29
     766        .dwcfi  save_reg_to_mem, 28, -28
     767        .dwcfi  save_reg_to_mem, 29, -27
     768        .dwcfi  save_reg_to_mem, 30, -26
     769        .dwcfi  save_reg_to_mem, 31, -25
     770        .dwcfi  save_reg_to_mem, 32, -24
PRU Assembler Unix v2.1.4 Sat Apr 14 23:23:22 2018

Tools Copyright (c) 2012-2015 Texas Instruments Incorporated
main1.asm                                                            PAGE   15

     771        .dwcfi  save_reg_to_mem, 33, -23
     772        .dwcfi  save_reg_to_mem, 34, -22
     773        .dwcfi  save_reg_to_mem, 35, -21
     774        .dwcfi  save_reg_to_mem, 36, -20
     775        .dwcfi  save_reg_to_mem, 37, -19
     776        .dwcfi  save_reg_to_mem, 38, -18
     777        .dwcfi  save_reg_to_mem, 39, -17
     778        .dwcfi  save_reg_to_mem, 40, -16
     779        .dwcfi  save_reg_to_mem, 41, -15
     780        .dwcfi  save_reg_to_mem, 42, -14
     781        .dwcfi  save_reg_to_mem, 43, -13
     782        .dwcfi  save_reg_to_mem, 44, -12
     783        .dwcfi  save_reg_to_mem, 45, -11
     784        .dwcfi  save_reg_to_mem, 46, -10
     785        .dwcfi  save_reg_to_mem, 47, -9
     786        .dwcfi  save_reg_to_mem, 48, -8
     787        .dwcfi  save_reg_to_mem, 49, -7
     788        .dwcfi  save_reg_to_mem, 50, -6
     789        .dwcfi  save_reg_to_mem, 51, -5
     790        .dwcfi  save_reg_to_mem, 52, -4
     791        .dwcfi  save_reg_to_mem, 53, -3
     792        .dwcfi  save_reg_to_mem, 54, -2
     793        .dwcfi  save_reg_to_mem, 55, -1
     794        .dwpsn  file "main1.c",line 180,column 2,is_stmt,isa 0
     795;----------------------------------------------------------------------
     796; 180 | CT_INTC.SICR_bit.STS_CLR_IDX = FROM_ARM_HOST;                          
     797;----------------------------------------------------------------------
     798 0000000c 002486240000C6!         LDI32     r6, ||CT_INTC||+36    ; [ALU_PRU] |180| $O$K4,CT_INTC
     799        .dwpsn  file "main1.c",line 177,column 2,is_stmt,isa 0
     800 00000014 0000001D04E0E0          CLR       r0, r0, 0x00000004    ; [ALU_PRU] |177| 
     801 00000018 00000081042080!         SBCO      &r0, __PRU_CREG_PRU_CFG, $CSBREL(||CT_CFG||+4), 4 ; [ALU_PRU] |177| CT_CFG
     802        .dwpsn  file "main1.c",line 180,column 2,is_stmt,isa 0
     803;----------------------------------------------------------------------
     804; 183 | status = &resourceTable.rpmsg_vdev.status;                             
     805;----------------------------------------------------------------------
     806 0000001c FC008024FFFFC0          LDI32     r0, 0xfffffc00        ; [ALU_PRU] |180| 
     807 00000024 000000F1002681          LBBO      &r1, r6, 0, 4         ; [ALU_PRU] |180| $O$K4
     808 00000028 00000010E0E1E0          AND       r0, r1, r0            ; [ALU_PRU] |180| 
     809 0000002c 0000001313E0E0          OR        r0, r0, 0x13          ; [ALU_PRU] |180| 
     810 00000030 000000E1002680          SBBO      &r0, r6, 0, 4         ; [ALU_PRU] |180| $O$K4
     811 00000034 000000240000E0!         LDI       r0, ||resourceTable|| ; [ALU_PRU] $O$K12,resourceTable
     812;* --------------------------------------------------------------------------*
     813;*   BEGIN LOOP ||$C$L13||
     814;*
     815;*   Loop source line                : 184
     816;*   Loop closing brace source line  : 184
     817;*   Known Minimum Trip Count        : 1
     818;*   Known Maximum Trip Count        : 4294967295
     819;*   Known Max Trip Count Factor     : 1
     820;* --------------------------------------------------------------------------*
     821 00000038                 ||$C$L13||:    
     822        .dwpsn  file "main1.c",line 184,column 9,is_stmt,isa 0
     823;----------------------------------------------------------------------
     824; 184 | while (!(*status & VIRTIO_CONFIG_S_DRIVER_OK));                        
     825;----------------------------------------------------------------------
PRU Assembler Unix v2.1.4 Sat Apr 14 23:23:22 2018

Tools Copyright (c) 2012-2015 Texas Instruments Incorporated
main1.asm                                                            PAGE   16

     826 00000038 000000F1300001          LBBO      &r1.b0, r0, 48, 1     ; [ALU_PRU] |184| $O$K12
     827 0000003c 000000CF0201FF          QBBC      ||$C$L13||, r1.b0, 0x02 ; [ALU_PRU] |184| 
     828;* --------------------------------------------------------------------------*
     829        .dwpsn  file "main1.c",line 187,column 2,is_stmt,isa 0
     830;----------------------------------------------------------------------
     831; 187 | pru_rpmsg_init(&transport, &resourceTable.rpmsg_vring0, &resourceTable.
     832;     | rpmsg_vring1, TO_ARM_HOST, FROM_ARM_HOST);                             
     833;----------------------------------------------------------------------
     834 00000040 0000000134E0EF          ADD       r15, r0, 0x34         ; [ALU_PRU] |187| $O$K12
     835 00000044 0000000106E2EE          ADD       r14, r2, 6            ; [ALU_PRU] |187| transport,transport
     836 00000048 000000240012F1          LDI       r17, 0x0012           ; [ALU_PRU] |187| 
     837 0000004c 000000240013F2          LDI       r18, 0x0013           ; [ALU_PRU] |187| 
     838 00000050 0000000148E0F0          ADD       r16, r0, 0x48         ; [ALU_PRU] |187| $O$K12
     839$C$DW$51        .dwtag  DW_TAG_TI_branch
     840        .dwattr $C$DW$51, DW_AT_low_pc(0x00)
     841        .dwattr $C$DW$51, DW_AT_name("pru_rpmsg_init")
     842        .dwattr $C$DW$51, DW_AT_TI_call
     843 00000054 000000230000C3!         JAL       r3.w2, ||pru_rpmsg_init|| ; [ALU_PRU] |187| pru_rpmsg_init
     844;* --------------------------------------------------------------------------*
     845;*   BEGIN LOOP ||$C$L14||
     846;*
     847;*   Loop source line                : 190
     848;*   Loop closing brace source line  : 190
     849;*   Known Minimum Trip Count        : 1
     850;*   Known Maximum Trip Count        : 4294967295
     851;*   Known Max Trip Count Factor     : 1
     852;* --------------------------------------------------------------------------*
     853 00000058                 ||$C$L14||:    
     854        .dwpsn  file "main1.c",line 190,column 9,is_stmt,isa 0
     855;----------------------------------------------------------------------
     856; 190 | while (pru_rpmsg_channel(RPMSG_NS_CREATE, &transport, CHAN_NAME, CHAN_D
     857;     | ESC, CHAN_PORT) != PRU_RPMSG_SUCCESS);                                 
     858; 192 | //wait for start signal from ARM                                       
     859; 193 | waitForMessage:                                                        
     860;----------------------------------------------------------------------
     861 00000058 0000002400000E          LDI       r14.b0, 0x00          ; [ALU_PRU] |190| 
     862 0000005c 0000000106E2EF          ADD       r15, r2, 6            ; [ALU_PRU] |190| transport,transport
     863 00000060 000090240000D0!         LDI32     r16, $C$SL1           ; [ALU_PRU] |190| 
     864 00000068 000091240000D1!         LDI32     r17, $C$SL2           ; [ALU_PRU] |190| 
     865 00000070 00000024001FF2          LDI       r18, 0x001f           ; [ALU_PRU] |190| 
     866$C$DW$52        .dwtag  DW_TAG_TI_branch
     867        .dwattr $C$DW$52, DW_AT_low_pc(0x00)
     868        .dwattr $C$DW$52, DW_AT_name("pru_rpmsg_channel")
     869        .dwattr $C$DW$52, DW_AT_TI_call
     870 00000074 000000230000C3!         JAL       r3.w2, ||pru_rpmsg_channel|| ; [ALU_PRU] |190| pru_rpmsg_channel
     871 00000078 0000006F008EF8          QBNE      ||$C$L14||, r14.w0, 0x00 ; [ALU_PRU] |190| 
     872;* --------------------------------------------------------------------------*
     873 0000007c 00000024003AEC          LDI       r12, 0x003a           ; [ALU_PRU] $O$K89
     874 00000080 00000024000AED          LDI       r13, 0x000a           ; [ALU_PRU] $O$K106
     875 00000084 0000002EFF8184          ZERO      &r4, 4                ; [ALU_PRU] $O$K56
     876 00000088 00008B240000CB!         LDI32     r11, ||CT_IEP||       ; [ALU_PRU] $O$K135,CT_IEP
     877 00000090 000000240000E7!         LDI       r7, ||printFlag||     ; [ALU_PRU] $O$K72,printFlag
     878 00000094 000000240000E5!         LDI       r5, ||payload||       ; [ALU_PRU] $O$K37,payload
     879;* --------------------------------------------------------------------------*
     880;*   BEGIN LOOP ||$C$L15||
PRU Assembler Unix v2.1.4 Sat Apr 14 23:23:22 2018

Tools Copyright (c) 2012-2015 Texas Instruments Incorporated
main1.asm                                                            PAGE   17

     881;*
     882;*   Loop source line                : 194
     883;*   Loop closing brace source line  : 194
     884;*   Known Minimum Trip Count        : 1
     885;*   Known Maximum Trip Count        : 4294967295
     886;*   Known Max Trip Count Factor     : 1
     887;* --------------------------------------------------------------------------*
     888 00000098                 ||$C$L15||:    
     889        .dwpsn  file "main1.c",line 194,column 8,is_stmt,isa 0
     890;----------------------------------------------------------------------
     891; 194 | while(!(__R31 & HOST_INT));                                            
     892;----------------------------------------------------------------------
     893 00000098 000000C91FFF00          QBBC      ||$C$L15||, r31, 0x1f ; [ALU_PRU] |194| 
     894;* --------------------------------------------------------------------------*
     895        .dwpsn  file "main1.c",line 196,column 2,is_stmt,isa 0
     896;----------------------------------------------------------------------
     897; 196 | CT_INTC.SICR_bit.STS_CLR_IDX = FROM_ARM_HOST;                          
     898;----------------------------------------------------------------------
     899 0000009c FC008024FFFFC0          LDI32     r0, 0xfffffc00        ; [ALU_PRU] |196| 
     900 000000a4 000000F1002681          LBBO      &r1, r6, 0, 4         ; [ALU_PRU] |196| $O$K4
     901 000000a8 00000010E0E1E0          AND       r0, r1, r0            ; [ALU_PRU] |196| 
     902 000000ac 0000001313E0E0          OR        r0, r0, 0x13          ; [ALU_PRU] |196| 
     903 000000b0 000000E1002680          SBBO      &r0, r6, 0, 4         ; [ALU_PRU] |196| $O$K4
     904;* --------------------------------------------------------------------------*
     905;*   BEGIN LOOP ||$C$L16||
     906;*
     907;*   Loop source line                : 197
     908;*   Loop closing brace source line  : 199
     909;*   Known Minimum Trip Count        : 1
     910;*   Known Maximum Trip Count        : 4294967295
     911;*   Known Max Trip Count Factor     : 1
     912;* --------------------------------------------------------------------------*
     913 000000b4                 ||$C$L16||:    
     914        .dwpsn  file "main1.c",line 197,column 9,is_stmt,isa 0
     915;----------------------------------------------------------------------
     916; 197 | while (pru_rpmsg_receive(&transport, &src, &dst, payload, &len) != PRU_
     917;     | RPMSG_SUCCESS) {                                                       
     918; 198 |         //wait for start signal reception to work                      
     919; 201 | if(len < 2 || payload[0] != 'g' || payload[1] != 'o'){                 
     920; 202 |         //did not get the start message                                
     921;----------------------------------------------------------------------
     922 000000b4 0000000106E2EE          ADD       r14, r2, 6            ; [ALU_PRU] |197| transport,transport
     923 000000b8 0000000100E2EF          ADD       r15, r2, 0            ; [ALU_PRU] |197| src,src
     924 000000bc 0000000102E2F0          ADD       r16, r2, 2            ; [ALU_PRU] |197| dst,dst
     925 000000c0 00000010E5E5F1          MOV       r17, r5               ; [ALU_PRU] |197| $O$K37
     926 000000c4 0000000104E2F2          ADD       r18, r2, 4            ; [ALU_PRU] |197| len,len
     927$C$DW$53        .dwtag  DW_TAG_TI_branch
     928        .dwattr $C$DW$53, DW_AT_low_pc(0x00)
     929        .dwattr $C$DW$53, DW_AT_name("pru_rpmsg_receive")
     930        .dwattr $C$DW$53, DW_AT_TI_call
     931 000000c8 000000230000C3!         JAL       r3.w2, ||pru_rpmsg_receive|| ; [ALU_PRU] |197| pru_rpmsg_receive
     932 000000cc 0000006F008EFA          QBNE      ||$C$L16||, r14.w0, 0x00 ; [ALU_PRU] |197| 
     933;* --------------------------------------------------------------------------*
     934        .dwpsn  file "main1.c",line 203,column 3,is_stmt,isa 0
     935;----------------------------------------------------------------------
PRU Assembler Unix v2.1.4 Sat Apr 14 23:23:22 2018

Tools Copyright (c) 2012-2015 Texas Instruments Incorporated
main1.asm                                                            PAGE   18

     936; 203 | goto waitForMessage;                                                   
     937; 207 | unsigned long time = 0;                                                
     938; 208 | int delay = 0;                                                         
     939; 209 | unsigned long count = 0;                                               
     940; 210 | unsigned i;                                                            
     941; 212 | unsigned x;                                                            
     942; 213 | unsigned bit;                                                          
     943; 215 | //Initialize variables                                                 
     944; 216 | for(i =0; i < SENSORS; i++){                                           
     945;----------------------------------------------------------------------
     946 000000d0 000000F1040280          LBBO      &r0.w0, r2, 4, 2      ; [ALU_PRU] |203| len
     947 000000d4 000000670280F1          QBGT      ||$C$L15||, r0.w0, 0x02 ; [ALU_PRU] |203| 
     948;* --------------------------------------------------------------------------*
     949 000000d8 000000F1000500          LBBO      &r0.b0, r5, 0, 1      ; [ALU_PRU] |203| $O$K37
     950 000000dc 0000006F6700EF          QBNE      ||$C$L15||, r0.b0, 0x67 ; [ALU_PRU] |203| 
     951;* --------------------------------------------------------------------------*
     952 000000e0 0000000101E5E8          ADD       r8, r5, 0x01          ; [ALU_PRU] |203| $O$K50,$O$K37
     953 000000e4 000000F1000800          LBBO      &r0.b0, r8, 0, 1      ; [ALU_PRU] |203| $O$K50
     954 000000e8 0000006F6F00EC          QBNE      ||$C$L15||, r0.b0, 0x6f ; [ALU_PRU] |203| 
     955;* --------------------------------------------------------------------------*
     956 000000ec 000000240000E0!         LDI       r0, ||codes||         ; [ALU_PRU] $O$U60,codes
     957 000000f0 00000031030003          LOOP      ||$C$L18||, 0x04      ; [ALU_PRU] 
     958;* --------------------------------------------------------------------------*
     959;*   BEGIN LOOP ||$C$L17||
     960;*
     961;*   Loop source line                : 216
     962;*   Loop closing brace source line  : 218
     963;*   Known Minimum Trip Count        : 4
     964;*   Known Maximum Trip Count        : 4
     965;*   Known Max Trip Count Factor     : 4
     966;* --------------------------------------------------------------------------*
     967 000000f4                 ||$C$L17||:    
     968        .dwpsn  file "main1.c",line 217,column 3,is_stmt,isa 0
     969;----------------------------------------------------------------------
     970; 217 | codes[i] = 0;                                                          
     971;----------------------------------------------------------------------
     972 000000f4 000000E1002084          SBBO      &r4, r0, 0, 4         ; [ALU_PRU] |217| $O$U60,$O$K56
     973        .dwpsn  file "main1.c",line 216,column 12,is_stmt,isa 0
     974 000000f8 0000000104E0E0          ADD       r0, r0, 0x04          ; [ALU_PRU] |216| $O$U60,$O$U60
     975        ; END LOOP ; [] |216| 
     976;* --------------------------------------------------------------------------*
     977 000000fc                 ||$C$L18||:    
     978        .dwpsn  file "main1.c",line 219,column 2,is_stmt,isa 0
     979;----------------------------------------------------------------------
     980; 219 | high = 0;                                                              
     981;----------------------------------------------------------------------
     982 000000fc 000000240000E0!         LDI       r0, ||high||          ; [ALU_PRU] |219| high
     983 00000100 000000E1002084          SBBO      &r4, r0, 0, 4         ; [ALU_PRU] |219| $O$K56
     984        .dwpsn  file "main1.c",line 220,column 2,is_stmt,isa 0
     985;----------------------------------------------------------------------
     986; 220 | active = 0;                                                            
     987;----------------------------------------------------------------------
     988 00000104 000000240000E0!         LDI       r0, ||active||        ; [ALU_PRU] |220| active
     989 00000108 000000E1002084          SBBO      &r4, r0, 0, 4         ; [ALU_PRU] |220| $O$K56
     990        .dwpsn  file "main1.c",line 221,column 2,is_stmt,isa 0
PRU Assembler Unix v2.1.4 Sat Apr 14 23:23:22 2018

Tools Copyright (c) 2012-2015 Texas Instruments Incorporated
main1.asm                                                            PAGE   19

     991;----------------------------------------------------------------------
     992; 221 | printFlag = 0;                                                         
     993; 222 | unsigned noPrint = 0;                                                  
     994; 225 | while (1) {                                                            
     995;----------------------------------------------------------------------
     996 0000010c 000000E1002784          SBBO      &r4, r7, 0, 4         ; [ALU_PRU] |221| $O$K72,$O$K56
     997;* --------------------------------------------------------------------------*
     998;*   BEGIN LOOP ||$C$L19||
     999;*
    1000;*   Loop source line                : 225
    1001;*   Loop closing brace source line  : 288
    1002;*   Known Minimum Trip Count        : 1
    1003;*   Known Maximum Trip Count        : 4294967295
    1004;*   Known Max Trip Count Factor     : 1
    1005;* --------------------------------------------------------------------------*
    1006 00000110                 ||$C$L19||:    
    1007        .dwpsn  file "main1.c",line 226,column 3,is_stmt,isa 0
    1008;----------------------------------------------------------------------
    1009; 226 | resetIEP();                                                            
    1010;----------------------------------------------------------------------
    1011$C$DW$54        .dwtag  DW_TAG_TI_branch
    1012        .dwattr $C$DW$54, DW_AT_low_pc(0x00)
    1013        .dwattr $C$DW$54, DW_AT_name("resetIEP")
    1014        .dwattr $C$DW$54, DW_AT_TI_call
    1015 00000110 000000230000C3!         JAL       r3.w2, ||resetIEP||   ; [ALU_PRU] |226| resetIEP
    1016        .dwpsn  file "main1.c",line 227,column 3,is_stmt,isa 0
    1017;----------------------------------------------------------------------
    1018; 227 | pollReceivers();                                                       
    1019; 229 | //verify and Print if we need to                                       
    1020;----------------------------------------------------------------------
    1021$C$DW$55        .dwtag  DW_TAG_TI_branch
    1022        .dwattr $C$DW$55, DW_AT_low_pc(0x00)
    1023        .dwattr $C$DW$55, DW_AT_name("pollReceivers")
    1024        .dwattr $C$DW$55, DW_AT_TI_call
    1025 00000114 000000230000C3!         JAL       r3.w2, ||pollReceivers|| ; [ALU_PRU] |227| pollReceivers
    1026        .dwpsn  file "main1.c",line 230,column 3,is_stmt,isa 0
    1027;----------------------------------------------------------------------
    1028; 230 | if(printFlag){                                                         
    1029; 231 |         noPrint  = 0;                                                  
    1030; 232 |         uint8_t i;                                                     
    1031; 233 |         unsigned mask;                                                 
    1032;----------------------------------------------------------------------
    1033 00000118 000000F1002780          LBBO      &r0, r7, 0, 4         ; [ALU_PRU] |230| $O$v1,$O$K72
    1034 0000011c 0000005100E029          QBEQ      ||$C$L26||, r0, 0x00  ; [ALU_PRU] |230| $O$v1
    1035;* --------------------------------------------------------------------------*
    1036 00000120 000000240000E9!         LDI       r9, ||pinMasks||      ; [ALU_PRU] $O$U81,pinMasks
    1037 00000124 0000002EFF818A          ZERO      &r10, 4               ; [ALU_PRU] $O$U78
    1038        .dwpsn  file "main1.c",line 234,column 8,is_stmt,isa 0
    1039;----------------------------------------------------------------------
    1040; 234 | for(i = 0; i < SENSORS ; i++){                                         
    1041; 235 | mask = pinMasks[i];                                                    
    1042;----------------------------------------------------------------------
    1043 00000128 0000002400002C          LDI       r12.b1, 0x00          ; [ALU_PRU] |234| i
    1044;* --------------------------------------------------------------------------*
    1045;*   BEGIN LOOP ||$C$L20||
PRU Assembler Unix v2.1.4 Sat Apr 14 23:23:22 2018

Tools Copyright (c) 2012-2015 Texas Instruments Incorporated
main1.asm                                                            PAGE   20

    1046;*
    1047;*   Loop source line                : 234
    1048;*   Loop closing brace source line  : 252
    1049;*   Known Minimum Trip Count        : 4
    1050;*   Known Maximum Trip Count        : 4
    1051;*   Known Max Trip Count Factor     : 4
    1052;* --------------------------------------------------------------------------*
    1053 0000012c                 ||$C$L20||:    
    1054        .dwpsn  file "main1.c",line 236,column 11,is_stmt,isa 0
    1055;----------------------------------------------------------------------
    1056; 236 | if(printFlag & mask){                                                  
    1057; 237 |         //TODO VERIFY                                                  
    1058;----------------------------------------------------------------------
    1059 0000012c 000000F1002981          LBBO      &r1, r9, 0, 4         ; [ALU_PRU] |236| $O$U81
    1060 00000130 00000010E0E1E1          AND       r1, r1, r0            ; [ALU_PRU] |236| $O$v1
    1061 00000134 0000005100E11E          QBEQ      ||$C$L25||, r1, 0x00  ; [ALU_PRU] |236| 
    1062;* --------------------------------------------------------------------------*
    1063        .dwpsn  file "main1.c",line 239,column 12,is_stmt,isa 0
    1064;----------------------------------------------------------------------
    1065; 239 | payload[0] = '0' + i;                                                  
    1066; 240 |         payload[1] = ':';                                              
    1067;----------------------------------------------------------------------
    1068 00000138 00000001302C00          ADD       r0.b0, r12.b1, 0x30   ; [ALU_PRU] |239| i
    1069 0000013c 000000E1000500          SBBO      &r0.b0, r5, 0, 1      ; [ALU_PRU] |239| $O$K37
    1070        .dwpsn  file "main1.c",line 241,column 10,is_stmt,isa 0
    1071;----------------------------------------------------------------------
    1072; 241 | for(bit = 1 << 15, x = 2; x < 18; x++ ){ //2 to 18 = 16 bits           
    1073;----------------------------------------------------------------------
    1074 00000140 000000248000E1          LDI       r1, 0x8000            ; [ALU_PRU] |241| bit
    1075        .dwpsn  file "main1.c",line 240,column 6,is_stmt,isa 0
    1076 00000144 000000E100080C          SBBO      &r12.b0, r8, 0, 1     ; [ALU_PRU] |240| $O$K50,$O$K89
    1077 00000148 000000240000E0!         LDI       r0, ||codes||         ; [ALU_PRU] codes
    1078 0000014c 000000F0EA208F          LBBO      &r15, r0, r10, 4      ; [ALU_PRU] $O$U94,$O$U78
    1079 00000150 0000000102E5E0          ADD       r0, r5, 0x02          ; [ALU_PRU] $O$U100,$O$K37
    1080 00000154 000000310F0009          LOOP      ||$C$L24||, 0x10      ; [ALU_PRU] 
    1081;* --------------------------------------------------------------------------*
    1082;*   BEGIN LOOP ||$C$L21||
    1083;*
    1084;*   Loop source line                : 241
    1085;*   Loop closing brace source line  : 244
    1086;*   Known Minimum Trip Count        : 16
    1087;*   Known Maximum Trip Count        : 16
    1088;*   Known Max Trip Count Factor     : 16
    1089;* --------------------------------------------------------------------------*
    1090 00000158                 ||$C$L21||:    
    1091        .dwpsn  file "main1.c",line 242,column 7,is_stmt,isa 0
    1092;----------------------------------------------------------------------
    1093; 242 | payload[x] = (codes[i] & bit) ? '1' : '0';                             
    1094;----------------------------------------------------------------------
    1095 00000158 00000010E1EFEE          AND       r14, r15, r1          ; [ALU_PRU] |242| $O$U94,bit
    1096 0000015c 0000005100EE03          QBEQ      ||$C$L22||, r14, 0x00 ; [ALU_PRU] |242| 
    1097;* --------------------------------------------------------------------------*
    1098 00000160 0000002400310E          LDI       r14.b0, 0x31          ; [ALU_PRU] |242| $O$S1
    1099 00000164 00000021000000!         JMP       ||$C$L23||            ; [ALU_PRU] |242| 
    1100;* --------------------------------------------------------------------------*
PRU Assembler Unix v2.1.4 Sat Apr 14 23:23:22 2018

Tools Copyright (c) 2012-2015 Texas Instruments Incorporated
main1.asm                                                            PAGE   21

    1101 00000168                 ||$C$L22||:    
    1102 00000168 0000002400300E          LDI       r14.b0, 0x30          ; [ALU_PRU] |242| $O$S1
    1103;* --------------------------------------------------------------------------*
    1104 0000016c                 ||$C$L23||:    
    1105 0000016c 000000E100000E          SBBO      &r14.b0, r0, 0, 1     ; [ALU_PRU] |242| $O$U100,$O$S1
    1106        .dwpsn  file "main1.c",line 243,column 7,is_stmt,isa 0
    1107;----------------------------------------------------------------------
    1108; 243 | bit >>= 1;                                                             
    1109;----------------------------------------------------------------------
    1110 00000170 0000000B01E1E1          LSR       r1, r1, 0x01          ; [ALU_PRU] |243| bit,bit
    1111        .dwpsn  file "main1.c",line 241,column 32,is_stmt,isa 0
    1112 00000174 0000000101E0E0          ADD       r0, r0, 0x01          ; [ALU_PRU] |241| $O$U100,$O$U100
    1113        ; END LOOP ; [] |241| 
    1114;* --------------------------------------------------------------------------*
    1115 00000178                 ||$C$L24||:    
    1116        .dwpsn  file "main1.c",line 245,column 6,is_stmt,isa 0
    1117;----------------------------------------------------------------------
    1118; 245 | payload[18] = '\n';                                                    
    1119; 246 | payload[19] = 0;                                                       
    1120;----------------------------------------------------------------------
    1121 00000178 000000E112050D          SBBO      &r13.b0, r5, 18, 1    ; [ALU_PRU] |245| $O$K37,$O$K106
    1122        .dwpsn  file "main1.c",line 247,column 6,is_stmt,isa 0
    1123;----------------------------------------------------------------------
    1124; 247 | len = 20;                                                              
    1125;----------------------------------------------------------------------
    1126 0000017c 00000024001480          LDI       r0.w0, 0x14           ; [ALU_PRU] |247| 
    1127        .dwpsn  file "main1.c",line 246,column 6,is_stmt,isa 0
    1128 00000180 000000E1130504          SBBO      &r4.b0, r5, 19, 1     ; [ALU_PRU] |246| $O$K37,$O$K109
    1129        .dwpsn  file "main1.c",line 249,column 6,is_stmt,isa 0
    1130;----------------------------------------------------------------------
    1131; 249 | pru_rpmsg_send(&transport, dst, src, payload, len);                    
    1132;----------------------------------------------------------------------
    1133 00000184 0000000106E2EE          ADD       r14, r2, 6            ; [ALU_PRU] |249| transport,transport
    1134 00000188 00000010E5E5F1          MOV       r17, r5               ; [ALU_PRU] |249| $O$K37
    1135 0000018c 00000024001492          LDI       r18.w0, 0x0014        ; [ALU_PRU] |249| 
    1136        .dwpsn  file "main1.c",line 247,column 6,is_stmt,isa 0
    1137 00000190 000000E1040280          SBBO      &r0.w0, r2, 4, 2      ; [ALU_PRU] |247| len
    1138        .dwpsn  file "main1.c",line 249,column 6,is_stmt,isa 0
    1139;----------------------------------------------------------------------
    1140; 253 | //clear print flags                                                    
    1141;----------------------------------------------------------------------
    1142 00000194 000000F1020280          LBBO      &r0.w0, r2, 2, 2      ; [ALU_PRU] |249| dst
    1143 00000198 000000108080EF          MOV       r15, r0.w0            ; [ALU_PRU] |249| 
    1144 0000019c 000000F1000280          LBBO      &r0.w0, r2, 0, 2      ; [ALU_PRU] |249| src
    1145 000001a0 000000108080F0          MOV       r16, r0.w0            ; [ALU_PRU] |249| 
    1146$C$DW$56        .dwtag  DW_TAG_TI_branch
    1147        .dwattr $C$DW$56, DW_AT_low_pc(0x00)
    1148        .dwattr $C$DW$56, DW_AT_name("pru_rpmsg_send")
    1149        .dwattr $C$DW$56, DW_AT_TI_call
    1150 000001a4 000000230000C3!         JAL       r3.w2, ||pru_rpmsg_send|| ; [ALU_PRU] |249| pru_rpmsg_send
    1151 000001a8 000000F1002780          LBBO      &r0, r7, 0, 4         ; [ALU_PRU] |249| $O$v1,$O$K72
    1152;* --------------------------------------------------------------------------*
    1153 000001ac                 ||$C$L25||:    
    1154        .dwpsn  file "main1.c",line 234,column 15,is_stmt,isa 0
    1155 000001ac 0000000104EAEA          ADD       r10, r10, 0x04        ; [ALU_PRU] |234| $O$U78,$O$U78
PRU Assembler Unix v2.1.4 Sat Apr 14 23:23:22 2018

Tools Copyright (c) 2012-2015 Texas Instruments Incorporated
main1.asm                                                            PAGE   22

    1156 000001b0 00000001012C2C          ADD       r12.b1, r12.b1, 0x01  ; [ALU_PRU] |234| i,i
    1157 000001b4 0000000104E9E9          ADD       r9, r9, 0x04          ; [ALU_PRU] |234| $O$U81,$O$U81
    1158 000001b8 00000067042CDD          QBGT      ||$C$L20||, r12.b1, 0x04 ; [ALU_PRU] |234| i
    1159;* --------------------------------------------------------------------------*
    1160        .dwpsn  file "main1.c",line 254,column 4,is_stmt,isa 0
    1161;----------------------------------------------------------------------
    1162; 254 | printFlag = 0;                                                         
    1163; 256 | //     else{  //print "no" if seen nothing in 10 seconds to confirm sti
    1164;     | l running                                                              
    1165; 257 | //          noPrint += RESOLUTION;                                     
    1166; 258 | //          if(noPrint > 10000000){                                    
    1167; 259 | //                  payload[0] = 'n' ;                                 
    1168; 260 |         // payload[1] = 'o';                                           
    1169; 261 |         // payload[2] = '\n';                                          
    1170; 262 |         // payload[3] = 0;                                             
    1171; 263 |         // len = 4;                                                    
    1172; 264 |         // pru_rpmsg_send(&transport, dst, src, payload, len);         
    1173; 265 | //                  noPrint = 0;                                       
    1174; 266 | //          }                                                          
    1175; 268 | //     }                                                               
    1176; 270 | //Check for message                                                    
    1177;----------------------------------------------------------------------
    1178 000001bc 000000E1002784          SBBO      &r4, r7, 0, 4         ; [ALU_PRU] |254| $O$K72,$O$K56
    1179;* --------------------------------------------------------------------------*
    1180 000001c0                 ||$C$L26||:    
    1181        .dwpsn  file "main1.c",line 271,column 6,is_stmt,isa 0
    1182;----------------------------------------------------------------------
    1183; 271 | if(__R31 & HOST_INT){                                                  
    1184;----------------------------------------------------------------------
    1185 000001c0 000000C91FFF1F          QBBC      ||$C$L28||, r31, 0x1f ; [ALU_PRU] |271| 
    1186;* --------------------------------------------------------------------------*
    1187        .dwpsn  file "main1.c",line 273,column 4,is_stmt,isa 0
    1188;----------------------------------------------------------------------
    1189; 273 | CT_INTC.SICR_bit.STS_CLR_IDX = FROM_ARM_HOST;                          
    1190;----------------------------------------------------------------------
    1191 000001c4 FC008024FFFFC0          LDI32     r0, 0xfffffc00        ; [ALU_PRU] |273| 
    1192 000001cc 000000F1002681          LBBO      &r1, r6, 0, 4         ; [ALU_PRU] |273| $O$K4
    1193        .dwpsn  file "main1.c",line 274,column 4,is_stmt,isa 0
    1194;----------------------------------------------------------------------
    1195; 274 | if (pru_rpmsg_receive(&transport, &src, &dst, payload, &len) == PRU_RPM
    1196;     | SG_SUCCESS) {                                                          
    1197;----------------------------------------------------------------------
    1198 000001d0 0000000106E2EE          ADD       r14, r2, 6            ; [ALU_PRU] |274| transport,transport
    1199 000001d4 0000000100E2EF          ADD       r15, r2, 0            ; [ALU_PRU] |274| src,src
    1200 000001d8 0000000102E2F0          ADD       r16, r2, 2            ; [ALU_PRU] |274| dst,dst
    1201 000001dc 00000010E5E5F1          MOV       r17, r5               ; [ALU_PRU] |274| $O$K37
    1202 000001e0 0000000104E2F2          ADD       r18, r2, 4            ; [ALU_PRU] |274| len,len
    1203        .dwpsn  file "main1.c",line 273,column 4,is_stmt,isa 0
    1204 000001e4 00000010E0E1E0          AND       r0, r1, r0            ; [ALU_PRU] |273| 
    1205 000001e8 0000001313E0E0          OR        r0, r0, 0x13          ; [ALU_PRU] |273| 
    1206 000001ec 000000E1002680          SBBO      &r0, r6, 0, 4         ; [ALU_PRU] |273| $O$K4
    1207        .dwpsn  file "main1.c",line 274,column 4,is_stmt,isa 0
    1208;----------------------------------------------------------------------
    1209; 275 | if(len >= 4 && payload[0] == 's' && payload[1] == 't' && payload[2] ==
    1210;     | 'o' && payload[3] == 'p'){                                             
PRU Assembler Unix v2.1.4 Sat Apr 14 23:23:22 2018

Tools Copyright (c) 2012-2015 Texas Instruments Incorporated
main1.asm                                                            PAGE   23

    1211; 276 |         //got stop command                                             
    1212;----------------------------------------------------------------------
    1213$C$DW$57        .dwtag  DW_TAG_TI_branch
    1214        .dwattr $C$DW$57, DW_AT_low_pc(0x00)
    1215        .dwattr $C$DW$57, DW_AT_name("pru_rpmsg_receive")
    1216        .dwattr $C$DW$57, DW_AT_TI_call
    1217 000001f0 000000230000C3!         JAL       r3.w2, ||pru_rpmsg_receive|| ; [ALU_PRU] |274| pru_rpmsg_receive
    1218 000001f4 00000069008E0C          QBNE      ||$C$L27||, r14.w0, 0x00 ; [ALU_PRU] |274| 
    1219;* --------------------------------------------------------------------------*
    1220        .dwpsn  file "main1.c",line 277,column 6,is_stmt,isa 0
    1221;----------------------------------------------------------------------
    1222; 277 | goto waitForMessage;                                                   
    1223; 279 | } else{                                                                
    1224;----------------------------------------------------------------------
    1225 000001f8 000000F1040280          LBBO      &r0.w0, r2, 4, 2      ; [ALU_PRU] |277| len
    1226 000001fc 00000061048010          QBGT      ||$C$L28||, r0.w0, 0x04 ; [ALU_PRU] |277| 
    1227;* --------------------------------------------------------------------------*
    1228 00000200 000000F1000500          LBBO      &r0.b0, r5, 0, 1      ; [ALU_PRU] |277| $O$K37
    1229 00000204 0000006973000E          QBNE      ||$C$L28||, r0.b0, 0x73 ; [ALU_PRU] |277| 
    1230;* --------------------------------------------------------------------------*
    1231 00000208 000000F1000800          LBBO      &r0.b0, r8, 0, 1      ; [ALU_PRU] |277| $O$K50
    1232 0000020c 0000006974000C          QBNE      ||$C$L28||, r0.b0, 0x74 ; [ALU_PRU] |277| 
    1233;* --------------------------------------------------------------------------*
    1234 00000210 000000F1020500          LBBO      &r0.b0, r5, 2, 1      ; [ALU_PRU] |277| $O$K37
    1235 00000214 000000696F000A          QBNE      ||$C$L28||, r0.b0, 0x6f ; [ALU_PRU] |277| 
    1236;* --------------------------------------------------------------------------*
    1237 00000218 000000F1030500          LBBO      &r0.b0, r5, 3, 1      ; [ALU_PRU] |277| $O$K37
    1238 0000021c 0000005770009F          QBEQ      ||$C$L15||, r0.b0, 0x70 ; [ALU_PRU] |277| 
    1239;* --------------------------------------------------------------------------*
    1240 00000220 00000021000000!         JMP       ||$C$L28||            ; [ALU_PRU] |277| 
    1241;* --------------------------------------------------------------------------*
    1242 00000224                 ||$C$L27||:    
    1243        .dwpsn  file "main1.c",line 280,column 6,is_stmt,isa 0
    1244;----------------------------------------------------------------------
    1245; 280 | CT_INTC.SICR_bit.STS_CLR_IDX = FROM_ARM_HOST;                          
    1246; 286 | while( CT_IEP.TMR_CNT < SAMPLE_PERIOD);                                
    1247;----------------------------------------------------------------------
    1248 00000224 FC008024FFFFC0          LDI32     r0, 0xfffffc00        ; [ALU_PRU] |280| 
    1249 0000022c 000000F1002681          LBBO      &r1, r6, 0, 4         ; [ALU_PRU] |280| $O$K4
    1250 00000230 00000010E0E1E0          AND       r0, r1, r0            ; [ALU_PRU] |280| 
    1251 00000234 0000001313E0E0          OR        r0, r0, 0x13          ; [ALU_PRU] |280| 
    1252 00000238 000000E1002680          SBBO      &r0, r6, 0, 4         ; [ALU_PRU] |280| $O$K4
    1253;* --------------------------------------------------------------------------*
    1254;*   BEGIN LOOP ||$C$L28||
    1255;*
    1256;*   Loop source line                : 286
    1257;*   Loop closing brace source line  : 286
    1258;*   Known Minimum Trip Count        : 1
    1259;*   Known Maximum Trip Count        : 4294967295
    1260;*   Known Max Trip Count Factor     : 1
    1261;* --------------------------------------------------------------------------*
    1262 0000023c                 ||$C$L28||:    
    1263        .dwpsn  file "main1.c",line 225,column 9,is_stmt,isa 0
    1264 0000023c 0000002407D0E0          LDI       r0, 0x07d0            ; [ALU_PRU] |225| 
    1265 00000240 000000F10C2B81          LBBO      &r1, r11, 12, 4       ; [ALU_PRU] |225| $O$K135
PRU Assembler Unix v2.1.4 Sat Apr 14 23:23:22 2018

Tools Copyright (c) 2012-2015 Texas Instruments Incorporated
main1.asm                                                            PAGE   24

    1266 00000244 00000076E1E0B3          QBGE      ||$C$L19||, r0, r1    ; [ALU_PRU] |225| 
    1267;* --------------------------------------------------------------------------*
    1268 00000248 00000021000000!         JMP       ||$C$L28||            ; [ALU_PRU] |225| 
    1269;* --------------------------------------------------------------------------*
    1270        .dwattr $C$DW$44, DW_AT_TI_end_file("main1.c")
    1271        .dwattr $C$DW$44, DW_AT_TI_end_line(0x121)
    1272        .dwattr $C$DW$44, DW_AT_TI_end_column(0x01)
    1273        .dwendentry
    1274        .dwendtag $C$DW$44
    1275
    1276;******************************************************************************
    1277;* STRINGS                                                                    *
    1278;******************************************************************************
    1279 00000000                         .sect   ".rodata:.string"
    1280 00000000 00000000000072  ||$C$SL1||:     .string "rpmsg-pru",0
         00000001 00000000000070 
         00000002 0000000000006D 
         00000003 00000000000073 
         00000004 00000000000067 
         00000005 0000000000002D 
         00000006 00000000000070 
         00000007 00000000000072 
         00000008 00000000000075 
         00000009 00000000000000 
    1281 0000000a 00000000000043  ||$C$SL2||:     .string "Channel 31",0
         0000000b 00000000000068 
         0000000c 00000000000061 
         0000000d 0000000000006E 
         0000000e 0000000000006E 
         0000000f 00000000000065 
         00000010 0000000000006C 
         00000011 00000000000020 
         00000012 00000000000033 
         00000013 00000000000031 
         00000014 00000000000000 
    1282;*****************************************************************************
    1283;* UNDEFINED EXTERNAL REFERENCES                                             *
    1284;*****************************************************************************
    1285        .global ||pru_rpmsg_init||
    1286        .global ||pru_rpmsg_receive||
    1287        .global ||pru_rpmsg_send||
    1288        .global ||pru_rpmsg_channel||
    1289
    1290;******************************************************************************
    1291;* TYPE INFORMATION                                                           *
    1292;******************************************************************************
    1293
    1294$C$DW$T$19      .dwtag  DW_TAG_structure_type
    1295        .dwattr $C$DW$T$19, DW_AT_byte_size(0x04)
    1296$C$DW$58        .dwtag  DW_TAG_member
    1297        .dwattr $C$DW$58, DW_AT_type(*$C$DW$T$11)
    1298        .dwattr $C$DW$58, DW_AT_name("REVID")
    1299        .dwattr $C$DW$58, DW_AT_TI_symbol_name("REVID")
    1300        .dwattr $C$DW$58, DW_AT_bit_offset(0x00), DW_AT_bit_size(0x20)
    1301        .dwattr $C$DW$58, DW_AT_data_member_location[DW_OP_plus_uconst 0x0]
PRU Assembler Unix v2.1.4 Sat Apr 14 23:23:22 2018

Tools Copyright (c) 2012-2015 Texas Instruments Incorporated
main1.asm                                                            PAGE   25

    1302        .dwattr $C$DW$58, DW_AT_accessibility(DW_ACCESS_public)
    1303        .dwattr $C$DW$58, DW_AT_decl_file("/usr/lib/ti/pru-software-support-package/include/am335x/pru
    1304        .dwattr $C$DW$58, DW_AT_decl_line(0x2d)
    1305        .dwattr $C$DW$58, DW_AT_decl_column(0x0d)
    1306        .dwendtag $C$DW$T$19
    1307
    1308        .dwattr $C$DW$T$19, DW_AT_decl_file("/usr/lib/ti/pru-software-support-package/include/am335x/p
    1309        .dwattr $C$DW$T$19, DW_AT_decl_line(0x2c)
    1310        .dwattr $C$DW$T$19, DW_AT_decl_column(0x13)
    1311$C$DW$T$131     .dwtag  DW_TAG_volatile_type
    1312        .dwattr $C$DW$T$131, DW_AT_type(*$C$DW$T$19)
    1313
    1314$C$DW$T$20      .dwtag  DW_TAG_structure_type
    1315        .dwattr $C$DW$T$20, DW_AT_byte_size(0x04)
    1316$C$DW$59        .dwtag  DW_TAG_member
    1317        .dwattr $C$DW$59, DW_AT_type(*$C$DW$T$11)
    1318        .dwattr $C$DW$59, DW_AT_name("IDLE_MODE")
    1319        .dwattr $C$DW$59, DW_AT_TI_symbol_name("IDLE_MODE")
    1320        .dwattr $C$DW$59, DW_AT_bit_offset(0x1e), DW_AT_bit_size(0x02)
    1321        .dwattr $C$DW$59, DW_AT_data_member_location[DW_OP_plus_uconst 0x0]
    1322        .dwattr $C$DW$59, DW_AT_accessibility(DW_ACCESS_public)
    1323        .dwattr $C$DW$59, DW_AT_decl_file("/usr/lib/ti/pru-software-support-package/include/am335x/pru
    1324        .dwattr $C$DW$59, DW_AT_decl_line(0x37)
    1325        .dwattr $C$DW$59, DW_AT_decl_column(0x0d)
    1326$C$DW$60        .dwtag  DW_TAG_member
    1327        .dwattr $C$DW$60, DW_AT_type(*$C$DW$T$11)
    1328        .dwattr $C$DW$60, DW_AT_name("STANDBY_MODE")
    1329        .dwattr $C$DW$60, DW_AT_TI_symbol_name("STANDBY_MODE")
    1330        .dwattr $C$DW$60, DW_AT_bit_offset(0x1c), DW_AT_bit_size(0x02)
    1331        .dwattr $C$DW$60, DW_AT_data_member_location[DW_OP_plus_uconst 0x0]
    1332        .dwattr $C$DW$60, DW_AT_accessibility(DW_ACCESS_public)
    1333        .dwattr $C$DW$60, DW_AT_decl_file("/usr/lib/ti/pru-software-support-package/include/am335x/pru
    1334        .dwattr $C$DW$60, DW_AT_decl_line(0x38)
    1335        .dwattr $C$DW$60, DW_AT_decl_column(0x0d)
    1336$C$DW$61        .dwtag  DW_TAG_member
    1337        .dwattr $C$DW$61, DW_AT_type(*$C$DW$T$11)
    1338        .dwattr $C$DW$61, DW_AT_name("STANDBY_INIT")
    1339        .dwattr $C$DW$61, DW_AT_TI_symbol_name("STANDBY_INIT")
    1340        .dwattr $C$DW$61, DW_AT_bit_offset(0x1b), DW_AT_bit_size(0x01)
    1341        .dwattr $C$DW$61, DW_AT_data_member_location[DW_OP_plus_uconst 0x0]
    1342        .dwattr $C$DW$61, DW_AT_accessibility(DW_ACCESS_public)
    1343        .dwattr $C$DW$61, DW_AT_decl_file("/usr/lib/ti/pru-software-support-package/include/am335x/pru
    1344        .dwattr $C$DW$61, DW_AT_decl_line(0x39)
    1345        .dwattr $C$DW$61, DW_AT_decl_column(0x0d)
    1346$C$DW$62        .dwtag  DW_TAG_member
    1347        .dwattr $C$DW$62, DW_AT_type(*$C$DW$T$11)
    1348        .dwattr $C$DW$62, DW_AT_name("SUB_MWAIT")
    1349        .dwattr $C$DW$62, DW_AT_TI_symbol_name("SUB_MWAIT")
    1350        .dwattr $C$DW$62, DW_AT_bit_offset(0x1a), DW_AT_bit_size(0x01)
    1351        .dwattr $C$DW$62, DW_AT_data_member_location[DW_OP_plus_uconst 0x0]
    1352        .dwattr $C$DW$62, DW_AT_accessibility(DW_ACCESS_public)
    1353        .dwattr $C$DW$62, DW_AT_decl_file("/usr/lib/ti/pru-software-support-package/include/am335x/pru
    1354        .dwattr $C$DW$62, DW_AT_decl_line(0x3a)
    1355        .dwattr $C$DW$62, DW_AT_decl_column(0x0d)
    1356$C$DW$63        .dwtag  DW_TAG_member
PRU Assembler Unix v2.1.4 Sat Apr 14 23:23:22 2018

Tools Copyright (c) 2012-2015 Texas Instruments Incorporated
main1.asm                                                            PAGE   26

    1357        .dwattr $C$DW$63, DW_AT_type(*$C$DW$T$11)
    1358        .dwattr $C$DW$63, DW_AT_name("rsvd6")
    1359        .dwattr $C$DW$63, DW_AT_TI_symbol_name("rsvd6")
    1360        .dwattr $C$DW$63, DW_AT_bit_offset(0x00), DW_AT_bit_size(0x1a)
    1361        .dwattr $C$DW$63, DW_AT_data_member_location[DW_OP_plus_uconst 0x0]
    1362        .dwattr $C$DW$63, DW_AT_accessibility(DW_ACCESS_public)
    1363        .dwattr $C$DW$63, DW_AT_decl_file("/usr/lib/ti/pru-software-support-package/include/am335x/pru
    1364        .dwattr $C$DW$63, DW_AT_decl_line(0x3b)
    1365        .dwattr $C$DW$63, DW_AT_decl_column(0x0d)
    1366        .dwendtag $C$DW$T$20
    1367
    1368        .dwattr $C$DW$T$20, DW_AT_decl_file("/usr/lib/ti/pru-software-support-package/include/am335x/p
    1369        .dwattr $C$DW$T$20, DW_AT_decl_line(0x36)
    1370        .dwattr $C$DW$T$20, DW_AT_decl_column(0x13)
    1371$C$DW$T$133     .dwtag  DW_TAG_volatile_type
    1372        .dwattr $C$DW$T$133, DW_AT_type(*$C$DW$T$20)
    1373
    1374$C$DW$T$21      .dwtag  DW_TAG_structure_type
    1375        .dwattr $C$DW$T$21, DW_AT_byte_size(0x04)
    1376$C$DW$64        .dwtag  DW_TAG_member
    1377        .dwattr $C$DW$64, DW_AT_type(*$C$DW$T$11)
    1378        .dwattr $C$DW$64, DW_AT_name("PRU0_GPI_MODE")
    1379        .dwattr $C$DW$64, DW_AT_TI_symbol_name("PRU0_GPI_MODE")
    1380        .dwattr $C$DW$64, DW_AT_bit_offset(0x1e), DW_AT_bit_size(0x02)
    1381        .dwattr $C$DW$64, DW_AT_data_member_location[DW_OP_plus_uconst 0x0]
    1382        .dwattr $C$DW$64, DW_AT_accessibility(DW_ACCESS_public)
    1383        .dwattr $C$DW$64, DW_AT_decl_file("/usr/lib/ti/pru-software-support-package/include/am335x/pru
    1384        .dwattr $C$DW$64, DW_AT_decl_line(0x45)
    1385        .dwattr $C$DW$64, DW_AT_decl_column(0x0d)
    1386$C$DW$65        .dwtag  DW_TAG_member
    1387        .dwattr $C$DW$65, DW_AT_type(*$C$DW$T$11)
    1388        .dwattr $C$DW$65, DW_AT_name("PRU0_GPI_CLK_MODE")
    1389        .dwattr $C$DW$65, DW_AT_TI_symbol_name("PRU0_GPI_CLK_MODE")
    1390        .dwattr $C$DW$65, DW_AT_bit_offset(0x1d), DW_AT_bit_size(0x01)
    1391        .dwattr $C$DW$65, DW_AT_data_member_location[DW_OP_plus_uconst 0x0]
    1392        .dwattr $C$DW$65, DW_AT_accessibility(DW_ACCESS_public)
    1393        .dwattr $C$DW$65, DW_AT_decl_file("/usr/lib/ti/pru-software-support-package/include/am335x/pru
    1394        .dwattr $C$DW$65, DW_AT_decl_line(0x46)
    1395        .dwattr $C$DW$65, DW_AT_decl_column(0x0d)
    1396$C$DW$66        .dwtag  DW_TAG_member
    1397        .dwattr $C$DW$66, DW_AT_type(*$C$DW$T$11)
    1398        .dwattr $C$DW$66, DW_AT_name("PRU0_GPI_DIV0")
    1399        .dwattr $C$DW$66, DW_AT_TI_symbol_name("PRU0_GPI_DIV0")
    1400        .dwattr $C$DW$66, DW_AT_bit_offset(0x18), DW_AT_bit_size(0x05)
    1401        .dwattr $C$DW$66, DW_AT_data_member_location[DW_OP_plus_uconst 0x0]
    1402        .dwattr $C$DW$66, DW_AT_accessibility(DW_ACCESS_public)
    1403        .dwattr $C$DW$66, DW_AT_decl_file("/usr/lib/ti/pru-software-support-package/include/am335x/pru
    1404        .dwattr $C$DW$66, DW_AT_decl_line(0x47)
    1405        .dwattr $C$DW$66, DW_AT_decl_column(0x0d)
    1406$C$DW$67        .dwtag  DW_TAG_member
    1407        .dwattr $C$DW$67, DW_AT_type(*$C$DW$T$11)
    1408        .dwattr $C$DW$67, DW_AT_name("PRU0_GPI_DIV1")
    1409        .dwattr $C$DW$67, DW_AT_TI_symbol_name("PRU0_GPI_DIV1")
    1410        .dwattr $C$DW$67, DW_AT_bit_offset(0x13), DW_AT_bit_size(0x05)
    1411        .dwattr $C$DW$67, DW_AT_data_member_location[DW_OP_plus_uconst 0x0]
PRU Assembler Unix v2.1.4 Sat Apr 14 23:23:22 2018

Tools Copyright (c) 2012-2015 Texas Instruments Incorporated
main1.asm                                                            PAGE   27

    1412        .dwattr $C$DW$67, DW_AT_accessibility(DW_ACCESS_public)
    1413        .dwattr $C$DW$67, DW_AT_decl_file("/usr/lib/ti/pru-software-support-package/include/am335x/pru
    1414        .dwattr $C$DW$67, DW_AT_decl_line(0x48)
    1415        .dwattr $C$DW$67, DW_AT_decl_column(0x0d)
    1416$C$DW$68        .dwtag  DW_TAG_member
    1417        .dwattr $C$DW$68, DW_AT_type(*$C$DW$T$11)
    1418        .dwattr $C$DW$68, DW_AT_name("PRU0_GPI_SB")
    1419        .dwattr $C$DW$68, DW_AT_TI_symbol_name("PRU0_GPI_SB")
    1420        .dwattr $C$DW$68, DW_AT_bit_offset(0x12), DW_AT_bit_size(0x01)
    1421        .dwattr $C$DW$68, DW_AT_data_member_location[DW_OP_plus_uconst 0x0]
    1422        .dwattr $C$DW$68, DW_AT_accessibility(DW_ACCESS_public)
    1423        .dwattr $C$DW$68, DW_AT_decl_file("/usr/lib/ti/pru-software-support-package/include/am335x/pru
    1424        .dwattr $C$DW$68, DW_AT_decl_line(0x49)
    1425        .dwattr $C$DW$68, DW_AT_decl_column(0x0d)
    1426$C$DW$69        .dwtag  DW_TAG_member
    1427        .dwattr $C$DW$69, DW_AT_type(*$C$DW$T$11)
    1428        .dwattr $C$DW$69, DW_AT_name("PRU0_GPO_MODE")
    1429        .dwattr $C$DW$69, DW_AT_TI_symbol_name("PRU0_GPO_MODE")
    1430        .dwattr $C$DW$69, DW_AT_bit_offset(0x11), DW_AT_bit_size(0x01)
    1431        .dwattr $C$DW$69, DW_AT_data_member_location[DW_OP_plus_uconst 0x0]
    1432        .dwattr $C$DW$69, DW_AT_accessibility(DW_ACCESS_public)
    1433        .dwattr $C$DW$69, DW_AT_decl_file("/usr/lib/ti/pru-software-support-package/include/am335x/pru
    1434        .dwattr $C$DW$69, DW_AT_decl_line(0x4a)
    1435        .dwattr $C$DW$69, DW_AT_decl_column(0x0d)
    1436$C$DW$70        .dwtag  DW_TAG_member
    1437        .dwattr $C$DW$70, DW_AT_type(*$C$DW$T$11)
    1438        .dwattr $C$DW$70, DW_AT_name("PRU0_GPO_DIV0")
    1439        .dwattr $C$DW$70, DW_AT_TI_symbol_name("PRU0_GPO_DIV0")
    1440        .dwattr $C$DW$70, DW_AT_bit_offset(0x0c), DW_AT_bit_size(0x05)
    1441        .dwattr $C$DW$70, DW_AT_data_member_location[DW_OP_plus_uconst 0x0]
    1442        .dwattr $C$DW$70, DW_AT_accessibility(DW_ACCESS_public)
    1443        .dwattr $C$DW$70, DW_AT_decl_file("/usr/lib/ti/pru-software-support-package/include/am335x/pru
    1444        .dwattr $C$DW$70, DW_AT_decl_line(0x4b)
    1445        .dwattr $C$DW$70, DW_AT_decl_column(0x0d)
    1446$C$DW$71        .dwtag  DW_TAG_member
    1447        .dwattr $C$DW$71, DW_AT_type(*$C$DW$T$11)
    1448        .dwattr $C$DW$71, DW_AT_name("PRU0_GPO_DIV1")
    1449        .dwattr $C$DW$71, DW_AT_TI_symbol_name("PRU0_GPO_DIV1")
    1450        .dwattr $C$DW$71, DW_AT_bit_offset(0x07), DW_AT_bit_size(0x05)
    1451        .dwattr $C$DW$71, DW_AT_data_member_location[DW_OP_plus_uconst 0x0]
    1452        .dwattr $C$DW$71, DW_AT_accessibility(DW_ACCESS_public)
    1453        .dwattr $C$DW$71, DW_AT_decl_file("/usr/lib/ti/pru-software-support-package/include/am335x/pru
    1454        .dwattr $C$DW$71, DW_AT_decl_line(0x4c)
    1455        .dwattr $C$DW$71, DW_AT_decl_column(0x0d)
    1456$C$DW$72        .dwtag  DW_TAG_member
    1457        .dwattr $C$DW$72, DW_AT_type(*$C$DW$T$11)
    1458        .dwattr $C$DW$72, DW_AT_name("PRU0_GPO_SH_SEL")
    1459        .dwattr $C$DW$72, DW_AT_TI_symbol_name("PRU0_GPO_SH_SEL")
    1460        .dwattr $C$DW$72, DW_AT_bit_offset(0x06), DW_AT_bit_size(0x01)
    1461        .dwattr $C$DW$72, DW_AT_data_member_location[DW_OP_plus_uconst 0x0]
    1462        .dwattr $C$DW$72, DW_AT_accessibility(DW_ACCESS_public)
    1463        .dwattr $C$DW$72, DW_AT_decl_file("/usr/lib/ti/pru-software-support-package/include/am335x/pru
    1464        .dwattr $C$DW$72, DW_AT_decl_line(0x4d)
    1465        .dwattr $C$DW$72, DW_AT_decl_column(0x0d)
    1466$C$DW$73        .dwtag  DW_TAG_member
PRU Assembler Unix v2.1.4 Sat Apr 14 23:23:22 2018

Tools Copyright (c) 2012-2015 Texas Instruments Incorporated
main1.asm                                                            PAGE   28

    1467        .dwattr $C$DW$73, DW_AT_type(*$C$DW$T$11)
    1468        .dwattr $C$DW$73, DW_AT_name("rsvd26")
    1469        .dwattr $C$DW$73, DW_AT_TI_symbol_name("rsvd26")
    1470        .dwattr $C$DW$73, DW_AT_bit_offset(0x00), DW_AT_bit_size(0x06)
    1471        .dwattr $C$DW$73, DW_AT_data_member_location[DW_OP_plus_uconst 0x0]
    1472        .dwattr $C$DW$73, DW_AT_accessibility(DW_ACCESS_public)
    1473        .dwattr $C$DW$73, DW_AT_decl_file("/usr/lib/ti/pru-software-support-package/include/am335x/pru
    1474        .dwattr $C$DW$73, DW_AT_decl_line(0x4e)
    1475        .dwattr $C$DW$73, DW_AT_decl_column(0x0d)
    1476        .dwendtag $C$DW$T$21
    1477
    1478        .dwattr $C$DW$T$21, DW_AT_decl_file("/usr/lib/ti/pru-software-support-package/include/am335x/p
    1479        .dwattr $C$DW$T$21, DW_AT_decl_line(0x44)
    1480        .dwattr $C$DW$T$21, DW_AT_decl_column(0x13)
    1481$C$DW$T$135     .dwtag  DW_TAG_volatile_type
    1482        .dwattr $C$DW$T$135, DW_AT_type(*$C$DW$T$21)
    1483
    1484$C$DW$T$22      .dwtag  DW_TAG_structure_type
    1485        .dwattr $C$DW$T$22, DW_AT_byte_size(0x04)
    1486$C$DW$74        .dwtag  DW_TAG_member
    1487        .dwattr $C$DW$74, DW_AT_type(*$C$DW$T$11)
    1488        .dwattr $C$DW$74, DW_AT_name("PRU1_GPI_MODE")
    1489        .dwattr $C$DW$74, DW_AT_TI_symbol_name("PRU1_GPI_MODE")
    1490        .dwattr $C$DW$74, DW_AT_bit_offset(0x1e), DW_AT_bit_size(0x02)
    1491        .dwattr $C$DW$74, DW_AT_data_member_location[DW_OP_plus_uconst 0x0]
    1492        .dwattr $C$DW$74, DW_AT_accessibility(DW_ACCESS_public)
    1493        .dwattr $C$DW$74, DW_AT_decl_file("/usr/lib/ti/pru-software-support-package/include/am335x/pru
    1494        .dwattr $C$DW$74, DW_AT_decl_line(0x58)
    1495        .dwattr $C$DW$74, DW_AT_decl_column(0x0d)
    1496$C$DW$75        .dwtag  DW_TAG_member
    1497        .dwattr $C$DW$75, DW_AT_type(*$C$DW$T$11)
    1498        .dwattr $C$DW$75, DW_AT_name("PRU1_GPI_CLK_MODE")
    1499        .dwattr $C$DW$75, DW_AT_TI_symbol_name("PRU1_GPI_CLK_MODE")
    1500        .dwattr $C$DW$75, DW_AT_bit_offset(0x1d), DW_AT_bit_size(0x01)
    1501        .dwattr $C$DW$75, DW_AT_data_member_location[DW_OP_plus_uconst 0x0]
    1502        .dwattr $C$DW$75, DW_AT_accessibility(DW_ACCESS_public)
    1503        .dwattr $C$DW$75, DW_AT_decl_file("/usr/lib/ti/pru-software-support-package/include/am335x/pru
    1504        .dwattr $C$DW$75, DW_AT_decl_line(0x59)
    1505        .dwattr $C$DW$75, DW_AT_decl_column(0x0d)
    1506$C$DW$76        .dwtag  DW_TAG_member
    1507        .dwattr $C$DW$76, DW_AT_type(*$C$DW$T$11)
    1508        .dwattr $C$DW$76, DW_AT_name("PRU1_GPI_DIV0")
    1509        .dwattr $C$DW$76, DW_AT_TI_symbol_name("PRU1_GPI_DIV0")
    1510        .dwattr $C$DW$76, DW_AT_bit_offset(0x18), DW_AT_bit_size(0x05)
    1511        .dwattr $C$DW$76, DW_AT_data_member_location[DW_OP_plus_uconst 0x0]
    1512        .dwattr $C$DW$76, DW_AT_accessibility(DW_ACCESS_public)
    1513        .dwattr $C$DW$76, DW_AT_decl_file("/usr/lib/ti/pru-software-support-package/include/am335x/pru
    1514        .dwattr $C$DW$76, DW_AT_decl_line(0x5a)
    1515        .dwattr $C$DW$76, DW_AT_decl_column(0x0d)
    1516$C$DW$77        .dwtag  DW_TAG_member
    1517        .dwattr $C$DW$77, DW_AT_type(*$C$DW$T$11)
    1518        .dwattr $C$DW$77, DW_AT_name("PRU1_GPI_DIV1")
    1519        .dwattr $C$DW$77, DW_AT_TI_symbol_name("PRU1_GPI_DIV1")
    1520        .dwattr $C$DW$77, DW_AT_bit_offset(0x13), DW_AT_bit_size(0x05)
    1521        .dwattr $C$DW$77, DW_AT_data_member_location[DW_OP_plus_uconst 0x0]
PRU Assembler Unix v2.1.4 Sat Apr 14 23:23:22 2018

Tools Copyright (c) 2012-2015 Texas Instruments Incorporated
main1.asm                                                            PAGE   29

    1522        .dwattr $C$DW$77, DW_AT_accessibility(DW_ACCESS_public)
    1523        .dwattr $C$DW$77, DW_AT_decl_file("/usr/lib/ti/pru-software-support-package/include/am335x/pru
    1524        .dwattr $C$DW$77, DW_AT_decl_line(0x5b)
    1525        .dwattr $C$DW$77, DW_AT_decl_column(0x0d)
    1526$C$DW$78        .dwtag  DW_TAG_member
    1527        .dwattr $C$DW$78, DW_AT_type(*$C$DW$T$11)
    1528        .dwattr $C$DW$78, DW_AT_name("PRU1_GPI_SB")
    1529        .dwattr $C$DW$78, DW_AT_TI_symbol_name("PRU1_GPI_SB")
    1530        .dwattr $C$DW$78, DW_AT_bit_offset(0x12), DW_AT_bit_size(0x01)
    1531        .dwattr $C$DW$78, DW_AT_data_member_location[DW_OP_plus_uconst 0x0]
    1532        .dwattr $C$DW$78, DW_AT_accessibility(DW_ACCESS_public)
    1533        .dwattr $C$DW$78, DW_AT_decl_file("/usr/lib/ti/pru-software-support-package/include/am335x/pru
    1534        .dwattr $C$DW$78, DW_AT_decl_line(0x5c)
    1535        .dwattr $C$DW$78, DW_AT_decl_column(0x0d)
    1536$C$DW$79        .dwtag  DW_TAG_member
    1537        .dwattr $C$DW$79, DW_AT_type(*$C$DW$T$11)
    1538        .dwattr $C$DW$79, DW_AT_name("PRU1_GPO_MODE")
    1539        .dwattr $C$DW$79, DW_AT_TI_symbol_name("PRU1_GPO_MODE")
    1540        .dwattr $C$DW$79, DW_AT_bit_offset(0x11), DW_AT_bit_size(0x01)
    1541        .dwattr $C$DW$79, DW_AT_data_member_location[DW_OP_plus_uconst 0x0]
    1542        .dwattr $C$DW$79, DW_AT_accessibility(DW_ACCESS_public)
    1543        .dwattr $C$DW$79, DW_AT_decl_file("/usr/lib/ti/pru-software-support-package/include/am335x/pru
    1544        .dwattr $C$DW$79, DW_AT_decl_line(0x5d)
    1545        .dwattr $C$DW$79, DW_AT_decl_column(0x0d)
    1546$C$DW$80        .dwtag  DW_TAG_member
    1547        .dwattr $C$DW$80, DW_AT_type(*$C$DW$T$11)
    1548        .dwattr $C$DW$80, DW_AT_name("PRU1_GPO_DIV0")
    1549        .dwattr $C$DW$80, DW_AT_TI_symbol_name("PRU1_GPO_DIV0")
    1550        .dwattr $C$DW$80, DW_AT_bit_offset(0x0c), DW_AT_bit_size(0x05)
    1551        .dwattr $C$DW$80, DW_AT_data_member_location[DW_OP_plus_uconst 0x0]
    1552        .dwattr $C$DW$80, DW_AT_accessibility(DW_ACCESS_public)
    1553        .dwattr $C$DW$80, DW_AT_decl_file("/usr/lib/ti/pru-software-support-package/include/am335x/pru
    1554        .dwattr $C$DW$80, DW_AT_decl_line(0x5e)
    1555        .dwattr $C$DW$80, DW_AT_decl_column(0x0d)
    1556$C$DW$81        .dwtag  DW_TAG_member
    1557        .dwattr $C$DW$81, DW_AT_type(*$C$DW$T$11)
    1558        .dwattr $C$DW$81, DW_AT_name("PRU1_GPO_DIV1")
    1559        .dwattr $C$DW$81, DW_AT_TI_symbol_name("PRU1_GPO_DIV1")
    1560        .dwattr $C$DW$81, DW_AT_bit_offset(0x07), DW_AT_bit_size(0x05)
    1561        .dwattr $C$DW$81, DW_AT_data_member_location[DW_OP_plus_uconst 0x0]
    1562        .dwattr $C$DW$81, DW_AT_accessibility(DW_ACCESS_public)
    1563        .dwattr $C$DW$81, DW_AT_decl_file("/usr/lib/ti/pru-software-support-package/include/am335x/pru
    1564        .dwattr $C$DW$81, DW_AT_decl_line(0x5f)
    1565        .dwattr $C$DW$81, DW_AT_decl_column(0x0d)
    1566$C$DW$82        .dwtag  DW_TAG_member
    1567        .dwattr $C$DW$82, DW_AT_type(*$C$DW$T$11)
    1568        .dwattr $C$DW$82, DW_AT_name("PRU1_GPO_SH_SEL")
    1569        .dwattr $C$DW$82, DW_AT_TI_symbol_name("PRU1_GPO_SH_SEL")
    1570        .dwattr $C$DW$82, DW_AT_bit_offset(0x06), DW_AT_bit_size(0x01)
    1571        .dwattr $C$DW$82, DW_AT_data_member_location[DW_OP_plus_uconst 0x0]
    1572        .dwattr $C$DW$82, DW_AT_accessibility(DW_ACCESS_public)
    1573        .dwattr $C$DW$82, DW_AT_decl_file("/usr/lib/ti/pru-software-support-package/include/am335x/pru
    1574        .dwattr $C$DW$82, DW_AT_decl_line(0x60)
    1575        .dwattr $C$DW$82, DW_AT_decl_column(0x0d)
    1576$C$DW$83        .dwtag  DW_TAG_member
PRU Assembler Unix v2.1.4 Sat Apr 14 23:23:22 2018

Tools Copyright (c) 2012-2015 Texas Instruments Incorporated
main1.asm                                                            PAGE   30

    1577        .dwattr $C$DW$83, DW_AT_type(*$C$DW$T$11)
    1578        .dwattr $C$DW$83, DW_AT_name("rsvd26")
    1579        .dwattr $C$DW$83, DW_AT_TI_symbol_name("rsvd26")
    1580        .dwattr $C$DW$83, DW_AT_bit_offset(0x00), DW_AT_bit_size(0x06)
    1581        .dwattr $C$DW$83, DW_AT_data_member_location[DW_OP_plus_uconst 0x0]
    1582        .dwattr $C$DW$83, DW_AT_accessibility(DW_ACCESS_public)
    1583        .dwattr $C$DW$83, DW_AT_decl_file("/usr/lib/ti/pru-software-support-package/include/am335x/pru
    1584        .dwattr $C$DW$83, DW_AT_decl_line(0x61)
    1585        .dwattr $C$DW$83, DW_AT_decl_column(0x0d)
    1586        .dwendtag $C$DW$T$22
    1587
    1588        .dwattr $C$DW$T$22, DW_AT_decl_file("/usr/lib/ti/pru-software-support-package/include/am335x/p
    1589        .dwattr $C$DW$T$22, DW_AT_decl_line(0x57)
    1590        .dwattr $C$DW$T$22, DW_AT_decl_column(0x13)
    1591$C$DW$T$137     .dwtag  DW_TAG_volatile_type
    1592        .dwattr $C$DW$T$137, DW_AT_type(*$C$DW$T$22)
    1593
    1594$C$DW$T$23      .dwtag  DW_TAG_structure_type
    1595        .dwattr $C$DW$T$23, DW_AT_byte_size(0x04)
    1596$C$DW$84        .dwtag  DW_TAG_member
    1597        .dwattr $C$DW$84, DW_AT_type(*$C$DW$T$11)
    1598        .dwattr $C$DW$84, DW_AT_name("PRU0_CLK_STOP_REQ")
    1599        .dwattr $C$DW$84, DW_AT_TI_symbol_name("PRU0_CLK_STOP_REQ")
    1600        .dwattr $C$DW$84, DW_AT_bit_offset(0x1f), DW_AT_bit_size(0x01)
    1601        .dwattr $C$DW$84, DW_AT_data_member_location[DW_OP_plus_uconst 0x0]
    1602        .dwattr $C$DW$84, DW_AT_accessibility(DW_ACCESS_public)
    1603        .dwattr $C$DW$84, DW_AT_decl_file("/usr/lib/ti/pru-software-support-package/include/am335x/pru
    1604        .dwattr $C$DW$84, DW_AT_decl_line(0x6b)
    1605        .dwattr $C$DW$84, DW_AT_decl_column(0x0d)
    1606$C$DW$85        .dwtag  DW_TAG_member
    1607        .dwattr $C$DW$85, DW_AT_type(*$C$DW$T$11)
    1608        .dwattr $C$DW$85, DW_AT_name("PRU0_CLK_STOP_ACK")
    1609        .dwattr $C$DW$85, DW_AT_TI_symbol_name("PRU0_CLK_STOP_ACK")
    1610        .dwattr $C$DW$85, DW_AT_bit_offset(0x1e), DW_AT_bit_size(0x01)
    1611        .dwattr $C$DW$85, DW_AT_data_member_location[DW_OP_plus_uconst 0x0]
    1612        .dwattr $C$DW$85, DW_AT_accessibility(DW_ACCESS_public)
    1613        .dwattr $C$DW$85, DW_AT_decl_file("/usr/lib/ti/pru-software-support-package/include/am335x/pru
    1614        .dwattr $C$DW$85, DW_AT_decl_line(0x6c)
    1615        .dwattr $C$DW$85, DW_AT_decl_column(0x0d)
    1616$C$DW$86        .dwtag  DW_TAG_member
    1617        .dwattr $C$DW$86, DW_AT_type(*$C$DW$T$11)
    1618        .dwattr $C$DW$86, DW_AT_name("PRU0_CLK_EN")
    1619        .dwattr $C$DW$86, DW_AT_TI_symbol_name("PRU0_CLK_EN")
    1620        .dwattr $C$DW$86, DW_AT_bit_offset(0x1d), DW_AT_bit_size(0x01)
    1621        .dwattr $C$DW$86, DW_AT_data_member_location[DW_OP_plus_uconst 0x0]
    1622        .dwattr $C$DW$86, DW_AT_accessibility(DW_ACCESS_public)
    1623        .dwattr $C$DW$86, DW_AT_decl_file("/usr/lib/ti/pru-software-support-package/include/am335x/pru
    1624        .dwattr $C$DW$86, DW_AT_decl_line(0x6d)
    1625        .dwattr $C$DW$86, DW_AT_decl_column(0x0d)
    1626$C$DW$87        .dwtag  DW_TAG_member
    1627        .dwattr $C$DW$87, DW_AT_type(*$C$DW$T$11)
    1628        .dwattr $C$DW$87, DW_AT_name("PRU1_CLK_STOP_REQ")
    1629        .dwattr $C$DW$87, DW_AT_TI_symbol_name("PRU1_CLK_STOP_REQ")
    1630        .dwattr $C$DW$87, DW_AT_bit_offset(0x1c), DW_AT_bit_size(0x01)
    1631        .dwattr $C$DW$87, DW_AT_data_member_location[DW_OP_plus_uconst 0x0]
PRU Assembler Unix v2.1.4 Sat Apr 14 23:23:22 2018

Tools Copyright (c) 2012-2015 Texas Instruments Incorporated
main1.asm                                                            PAGE   31

    1632        .dwattr $C$DW$87, DW_AT_accessibility(DW_ACCESS_public)
    1633        .dwattr $C$DW$87, DW_AT_decl_file("/usr/lib/ti/pru-software-support-package/include/am335x/pru
    1634        .dwattr $C$DW$87, DW_AT_decl_line(0x6e)
    1635        .dwattr $C$DW$87, DW_AT_decl_column(0x0d)
    1636$C$DW$88        .dwtag  DW_TAG_member
    1637        .dwattr $C$DW$88, DW_AT_type(*$C$DW$T$11)
    1638        .dwattr $C$DW$88, DW_AT_name("PRU1_CLK_STOP_ACK")
    1639        .dwattr $C$DW$88, DW_AT_TI_symbol_name("PRU1_CLK_STOP_ACK")
    1640        .dwattr $C$DW$88, DW_AT_bit_offset(0x1b), DW_AT_bit_size(0x01)
    1641        .dwattr $C$DW$88, DW_AT_data_member_location[DW_OP_plus_uconst 0x0]
    1642        .dwattr $C$DW$88, DW_AT_accessibility(DW_ACCESS_public)
    1643        .dwattr $C$DW$88, DW_AT_decl_file("/usr/lib/ti/pru-software-support-package/include/am335x/pru
    1644        .dwattr $C$DW$88, DW_AT_decl_line(0x6f)
    1645        .dwattr $C$DW$88, DW_AT_decl_column(0x0d)
    1646$C$DW$89        .dwtag  DW_TAG_member
    1647        .dwattr $C$DW$89, DW_AT_type(*$C$DW$T$11)
    1648        .dwattr $C$DW$89, DW_AT_name("PRU1_CLK_EN")
    1649        .dwattr $C$DW$89, DW_AT_TI_symbol_name("PRU1_CLK_EN")
    1650        .dwattr $C$DW$89, DW_AT_bit_offset(0x1a), DW_AT_bit_size(0x01)
    1651        .dwattr $C$DW$89, DW_AT_data_member_location[DW_OP_plus_uconst 0x0]
    1652        .dwattr $C$DW$89, DW_AT_accessibility(DW_ACCESS_public)
    1653        .dwattr $C$DW$89, DW_AT_decl_file("/usr/lib/ti/pru-software-support-package/include/am335x/pru
    1654        .dwattr $C$DW$89, DW_AT_decl_line(0x70)
    1655        .dwattr $C$DW$89, DW_AT_decl_column(0x0d)
    1656$C$DW$90        .dwtag  DW_TAG_member
    1657        .dwattr $C$DW$90, DW_AT_type(*$C$DW$T$11)
    1658        .dwattr $C$DW$90, DW_AT_name("INTC_CLK_STOP_REQ")
    1659        .dwattr $C$DW$90, DW_AT_TI_symbol_name("INTC_CLK_STOP_REQ")
    1660        .dwattr $C$DW$90, DW_AT_bit_offset(0x19), DW_AT_bit_size(0x01)
    1661        .dwattr $C$DW$90, DW_AT_data_member_location[DW_OP_plus_uconst 0x0]
    1662        .dwattr $C$DW$90, DW_AT_accessibility(DW_ACCESS_public)
    1663        .dwattr $C$DW$90, DW_AT_decl_file("/usr/lib/ti/pru-software-support-package/include/am335x/pru
    1664        .dwattr $C$DW$90, DW_AT_decl_line(0x71)
    1665        .dwattr $C$DW$90, DW_AT_decl_column(0x0d)
    1666$C$DW$91        .dwtag  DW_TAG_member
    1667        .dwattr $C$DW$91, DW_AT_type(*$C$DW$T$11)
    1668        .dwattr $C$DW$91, DW_AT_name("INTC_CLK_STOP_ACK")
    1669        .dwattr $C$DW$91, DW_AT_TI_symbol_name("INTC_CLK_STOP_ACK")
    1670        .dwattr $C$DW$91, DW_AT_bit_offset(0x18), DW_AT_bit_size(0x01)
    1671        .dwattr $C$DW$91, DW_AT_data_member_location[DW_OP_plus_uconst 0x0]
    1672        .dwattr $C$DW$91, DW_AT_accessibility(DW_ACCESS_public)
    1673        .dwattr $C$DW$91, DW_AT_decl_file("/usr/lib/ti/pru-software-support-package/include/am335x/pru
    1674        .dwattr $C$DW$91, DW_AT_decl_line(0x72)
    1675        .dwattr $C$DW$91, DW_AT_decl_column(0x0d)
    1676$C$DW$92        .dwtag  DW_TAG_member
    1677        .dwattr $C$DW$92, DW_AT_type(*$C$DW$T$11)
    1678        .dwattr $C$DW$92, DW_AT_name("INTC_CLK_EN")
    1679        .dwattr $C$DW$92, DW_AT_TI_symbol_name("INTC_CLK_EN")
    1680        .dwattr $C$DW$92, DW_AT_bit_offset(0x17), DW_AT_bit_size(0x01)
    1681        .dwattr $C$DW$92, DW_AT_data_member_location[DW_OP_plus_uconst 0x0]
    1682        .dwattr $C$DW$92, DW_AT_accessibility(DW_ACCESS_public)
    1683        .dwattr $C$DW$92, DW_AT_decl_file("/usr/lib/ti/pru-software-support-package/include/am335x/pru
    1684        .dwattr $C$DW$92, DW_AT_decl_line(0x73)
    1685        .dwattr $C$DW$92, DW_AT_decl_column(0x0d)
    1686$C$DW$93        .dwtag  DW_TAG_member
PRU Assembler Unix v2.1.4 Sat Apr 14 23:23:22 2018

Tools Copyright (c) 2012-2015 Texas Instruments Incorporated
main1.asm                                                            PAGE   32

    1687        .dwattr $C$DW$93, DW_AT_type(*$C$DW$T$11)
    1688        .dwattr $C$DW$93, DW_AT_name("UART_CLK_STOP_REQ")
    1689        .dwattr $C$DW$93, DW_AT_TI_symbol_name("UART_CLK_STOP_REQ")
    1690        .dwattr $C$DW$93, DW_AT_bit_offset(0x16), DW_AT_bit_size(0x01)
    1691        .dwattr $C$DW$93, DW_AT_data_member_location[DW_OP_plus_uconst 0x0]
    1692        .dwattr $C$DW$93, DW_AT_accessibility(DW_ACCESS_public)
    1693        .dwattr $C$DW$93, DW_AT_decl_file("/usr/lib/ti/pru-software-support-package/include/am335x/pru
    1694        .dwattr $C$DW$93, DW_AT_decl_line(0x74)
    1695        .dwattr $C$DW$93, DW_AT_decl_column(0x0d)
    1696$C$DW$94        .dwtag  DW_TAG_member
    1697        .dwattr $C$DW$94, DW_AT_type(*$C$DW$T$11)
    1698        .dwattr $C$DW$94, DW_AT_name("UART_CLK_STOP_ACK")
    1699        .dwattr $C$DW$94, DW_AT_TI_symbol_name("UART_CLK_STOP_ACK")
    1700        .dwattr $C$DW$94, DW_AT_bit_offset(0x15), DW_AT_bit_size(0x01)
    1701        .dwattr $C$DW$94, DW_AT_data_member_location[DW_OP_plus_uconst 0x0]
    1702        .dwattr $C$DW$94, DW_AT_accessibility(DW_ACCESS_public)
    1703        .dwattr $C$DW$94, DW_AT_decl_file("/usr/lib/ti/pru-software-support-package/include/am335x/pru
    1704        .dwattr $C$DW$94, DW_AT_decl_line(0x75)
    1705        .dwattr $C$DW$94, DW_AT_decl_column(0x0d)
    1706$C$DW$95        .dwtag  DW_TAG_member
    1707        .dwattr $C$DW$95, DW_AT_type(*$C$DW$T$11)
    1708        .dwattr $C$DW$95, DW_AT_name("UART_CLK_EN")
    1709        .dwattr $C$DW$95, DW_AT_TI_symbol_name("UART_CLK_EN")
    1710        .dwattr $C$DW$95, DW_AT_bit_offset(0x14), DW_AT_bit_size(0x01)
    1711        .dwattr $C$DW$95, DW_AT_data_member_location[DW_OP_plus_uconst 0x0]
    1712        .dwattr $C$DW$95, DW_AT_accessibility(DW_ACCESS_public)
    1713        .dwattr $C$DW$95, DW_AT_decl_file("/usr/lib/ti/pru-software-support-package/include/am335x/pru
    1714        .dwattr $C$DW$95, DW_AT_decl_line(0x76)
    1715        .dwattr $C$DW$95, DW_AT_decl_column(0x0d)
    1716$C$DW$96        .dwtag  DW_TAG_member
    1717        .dwattr $C$DW$96, DW_AT_type(*$C$DW$T$11)
    1718        .dwattr $C$DW$96, DW_AT_name("ECAP_CLK_STOP_REQ")
    1719        .dwattr $C$DW$96, DW_AT_TI_symbol_name("ECAP_CLK_STOP_REQ")
    1720        .dwattr $C$DW$96, DW_AT_bit_offset(0x13), DW_AT_bit_size(0x01)
    1721        .dwattr $C$DW$96, DW_AT_data_member_location[DW_OP_plus_uconst 0x0]
    1722        .dwattr $C$DW$96, DW_AT_accessibility(DW_ACCESS_public)
    1723        .dwattr $C$DW$96, DW_AT_decl_file("/usr/lib/ti/pru-software-support-package/include/am335x/pru
    1724        .dwattr $C$DW$96, DW_AT_decl_line(0x77)
    1725        .dwattr $C$DW$96, DW_AT_decl_column(0x0d)
    1726$C$DW$97        .dwtag  DW_TAG_member
    1727        .dwattr $C$DW$97, DW_AT_type(*$C$DW$T$11)
    1728        .dwattr $C$DW$97, DW_AT_name("ECAP_CLK_STOP_ACK")
    1729        .dwattr $C$DW$97, DW_AT_TI_symbol_name("ECAP_CLK_STOP_ACK")
    1730        .dwattr $C$DW$97, DW_AT_bit_offset(0x12), DW_AT_bit_size(0x01)
    1731        .dwattr $C$DW$97, DW_AT_data_member_location[DW_OP_plus_uconst 0x0]
    1732        .dwattr $C$DW$97, DW_AT_accessibility(DW_ACCESS_public)
    1733        .dwattr $C$DW$97, DW_AT_decl_file("/usr/lib/ti/pru-software-support-package/include/am335x/pru
    1734        .dwattr $C$DW$97, DW_AT_decl_line(0x78)
    1735        .dwattr $C$DW$97, DW_AT_decl_column(0x0d)
    1736$C$DW$98        .dwtag  DW_TAG_member
    1737        .dwattr $C$DW$98, DW_AT_type(*$C$DW$T$11)
    1738        .dwattr $C$DW$98, DW_AT_name("ECAP_CLK_EN")
    1739        .dwattr $C$DW$98, DW_AT_TI_symbol_name("ECAP_CLK_EN")
    1740        .dwattr $C$DW$98, DW_AT_bit_offset(0x11), DW_AT_bit_size(0x01)
    1741        .dwattr $C$DW$98, DW_AT_data_member_location[DW_OP_plus_uconst 0x0]
PRU Assembler Unix v2.1.4 Sat Apr 14 23:23:22 2018

Tools Copyright (c) 2012-2015 Texas Instruments Incorporated
main1.asm                                                            PAGE   33

    1742        .dwattr $C$DW$98, DW_AT_accessibility(DW_ACCESS_public)
    1743        .dwattr $C$DW$98, DW_AT_decl_file("/usr/lib/ti/pru-software-support-package/include/am335x/pru
    1744        .dwattr $C$DW$98, DW_AT_decl_line(0x79)
    1745        .dwattr $C$DW$98, DW_AT_decl_column(0x0d)
    1746$C$DW$99        .dwtag  DW_TAG_member
    1747        .dwattr $C$DW$99, DW_AT_type(*$C$DW$T$11)
    1748        .dwattr $C$DW$99, DW_AT_name("IEP_CLK_STOP_REQ")
    1749        .dwattr $C$DW$99, DW_AT_TI_symbol_name("IEP_CLK_STOP_REQ")
    1750        .dwattr $C$DW$99, DW_AT_bit_offset(0x10), DW_AT_bit_size(0x01)
    1751        .dwattr $C$DW$99, DW_AT_data_member_location[DW_OP_plus_uconst 0x0]
    1752        .dwattr $C$DW$99, DW_AT_accessibility(DW_ACCESS_public)
    1753        .dwattr $C$DW$99, DW_AT_decl_file("/usr/lib/ti/pru-software-support-package/include/am335x/pru
    1754        .dwattr $C$DW$99, DW_AT_decl_line(0x7a)
    1755        .dwattr $C$DW$99, DW_AT_decl_column(0x0d)
    1756$C$DW$100       .dwtag  DW_TAG_member
    1757        .dwattr $C$DW$100, DW_AT_type(*$C$DW$T$11)
    1758        .dwattr $C$DW$100, DW_AT_name("IEP_CLK_STOP_ACK")
    1759        .dwattr $C$DW$100, DW_AT_TI_symbol_name("IEP_CLK_STOP_ACK")
    1760        .dwattr $C$DW$100, DW_AT_bit_offset(0x0f), DW_AT_bit_size(0x01)
    1761        .dwattr $C$DW$100, DW_AT_data_member_location[DW_OP_plus_uconst 0x0]
    1762        .dwattr $C$DW$100, DW_AT_accessibility(DW_ACCESS_public)
    1763        .dwattr $C$DW$100, DW_AT_decl_file("/usr/lib/ti/pru-software-support-package/include/am335x/pr
    1764        .dwattr $C$DW$100, DW_AT_decl_line(0x7b)
    1765        .dwattr $C$DW$100, DW_AT_decl_column(0x0d)
    1766$C$DW$101       .dwtag  DW_TAG_member
    1767        .dwattr $C$DW$101, DW_AT_type(*$C$DW$T$11)
    1768        .dwattr $C$DW$101, DW_AT_name("IEP_CLK_EN")
    1769        .dwattr $C$DW$101, DW_AT_TI_symbol_name("IEP_CLK_EN")
    1770        .dwattr $C$DW$101, DW_AT_bit_offset(0x0e), DW_AT_bit_size(0x01)
    1771        .dwattr $C$DW$101, DW_AT_data_member_location[DW_OP_plus_uconst 0x0]
    1772        .dwattr $C$DW$101, DW_AT_accessibility(DW_ACCESS_public)
    1773        .dwattr $C$DW$101, DW_AT_decl_file("/usr/lib/ti/pru-software-support-package/include/am335x/pr
    1774        .dwattr $C$DW$101, DW_AT_decl_line(0x7c)
    1775        .dwattr $C$DW$101, DW_AT_decl_column(0x0d)
    1776$C$DW$102       .dwtag  DW_TAG_member
    1777        .dwattr $C$DW$102, DW_AT_type(*$C$DW$T$11)
    1778        .dwattr $C$DW$102, DW_AT_name("rsvd18")
    1779        .dwattr $C$DW$102, DW_AT_TI_symbol_name("rsvd18")
    1780        .dwattr $C$DW$102, DW_AT_bit_offset(0x00), DW_AT_bit_size(0x0e)
    1781        .dwattr $C$DW$102, DW_AT_data_member_location[DW_OP_plus_uconst 0x0]
    1782        .dwattr $C$DW$102, DW_AT_accessibility(DW_ACCESS_public)
    1783        .dwattr $C$DW$102, DW_AT_decl_file("/usr/lib/ti/pru-software-support-package/include/am335x/pr
    1784        .dwattr $C$DW$102, DW_AT_decl_line(0x7d)
    1785        .dwattr $C$DW$102, DW_AT_decl_column(0x0d)
    1786        .dwendtag $C$DW$T$23
    1787
    1788        .dwattr $C$DW$T$23, DW_AT_decl_file("/usr/lib/ti/pru-software-support-package/include/am335x/p
    1789        .dwattr $C$DW$T$23, DW_AT_decl_line(0x6a)
    1790        .dwattr $C$DW$T$23, DW_AT_decl_column(0x13)
    1791$C$DW$T$139     .dwtag  DW_TAG_volatile_type
    1792        .dwattr $C$DW$T$139, DW_AT_type(*$C$DW$T$23)
    1793
    1794$C$DW$T$24      .dwtag  DW_TAG_structure_type
    1795        .dwattr $C$DW$T$24, DW_AT_byte_size(0x04)
    1796$C$DW$103       .dwtag  DW_TAG_member
PRU Assembler Unix v2.1.4 Sat Apr 14 23:23:22 2018

Tools Copyright (c) 2012-2015 Texas Instruments Incorporated
main1.asm                                                            PAGE   34

    1797        .dwattr $C$DW$103, DW_AT_type(*$C$DW$T$11)
    1798        .dwattr $C$DW$103, DW_AT_name("PRU0_IMEM_PE_RAW")
    1799        .dwattr $C$DW$103, DW_AT_TI_symbol_name("PRU0_IMEM_PE_RAW")
    1800        .dwattr $C$DW$103, DW_AT_bit_offset(0x1c), DW_AT_bit_size(0x04)
    1801        .dwattr $C$DW$103, DW_AT_data_member_location[DW_OP_plus_uconst 0x0]
    1802        .dwattr $C$DW$103, DW_AT_accessibility(DW_ACCESS_public)
    1803        .dwattr $C$DW$103, DW_AT_decl_file("/usr/lib/ti/pru-software-support-package/include/am335x/pr
    1804        .dwattr $C$DW$103, DW_AT_decl_line(0x87)
    1805        .dwattr $C$DW$103, DW_AT_decl_column(0x0d)
    1806$C$DW$104       .dwtag  DW_TAG_member
    1807        .dwattr $C$DW$104, DW_AT_type(*$C$DW$T$11)
    1808        .dwattr $C$DW$104, DW_AT_name("PRU0_DMEM_PE_RAW")
    1809        .dwattr $C$DW$104, DW_AT_TI_symbol_name("PRU0_DMEM_PE_RAW")
    1810        .dwattr $C$DW$104, DW_AT_bit_offset(0x18), DW_AT_bit_size(0x04)
    1811        .dwattr $C$DW$104, DW_AT_data_member_location[DW_OP_plus_uconst 0x0]
    1812        .dwattr $C$DW$104, DW_AT_accessibility(DW_ACCESS_public)
    1813        .dwattr $C$DW$104, DW_AT_decl_file("/usr/lib/ti/pru-software-support-package/include/am335x/pr
    1814        .dwattr $C$DW$104, DW_AT_decl_line(0x88)
    1815        .dwattr $C$DW$104, DW_AT_decl_column(0x0d)
    1816$C$DW$105       .dwtag  DW_TAG_member
    1817        .dwattr $C$DW$105, DW_AT_type(*$C$DW$T$11)
    1818        .dwattr $C$DW$105, DW_AT_name("PRU1_IMEM_PE_RAW")
    1819        .dwattr $C$DW$105, DW_AT_TI_symbol_name("PRU1_IMEM_PE_RAW")
    1820        .dwattr $C$DW$105, DW_AT_bit_offset(0x14), DW_AT_bit_size(0x04)
    1821        .dwattr $C$DW$105, DW_AT_data_member_location[DW_OP_plus_uconst 0x0]
    1822        .dwattr $C$DW$105, DW_AT_accessibility(DW_ACCESS_public)
    1823        .dwattr $C$DW$105, DW_AT_decl_file("/usr/lib/ti/pru-software-support-package/include/am335x/pr
    1824        .dwattr $C$DW$105, DW_AT_decl_line(0x89)
    1825        .dwattr $C$DW$105, DW_AT_decl_column(0x0d)
    1826$C$DW$106       .dwtag  DW_TAG_member
    1827        .dwattr $C$DW$106, DW_AT_type(*$C$DW$T$11)
    1828        .dwattr $C$DW$106, DW_AT_name("PRU1_DMEM_PE_RAW")
    1829        .dwattr $C$DW$106, DW_AT_TI_symbol_name("PRU1_DMEM_PE_RAW")
    1830        .dwattr $C$DW$106, DW_AT_bit_offset(0x10), DW_AT_bit_size(0x04)
    1831        .dwattr $C$DW$106, DW_AT_data_member_location[DW_OP_plus_uconst 0x0]
    1832        .dwattr $C$DW$106, DW_AT_accessibility(DW_ACCESS_public)
    1833        .dwattr $C$DW$106, DW_AT_decl_file("/usr/lib/ti/pru-software-support-package/include/am335x/pr
    1834        .dwattr $C$DW$106, DW_AT_decl_line(0x8a)
    1835        .dwattr $C$DW$106, DW_AT_decl_column(0x0d)
    1836$C$DW$107       .dwtag  DW_TAG_member
    1837        .dwattr $C$DW$107, DW_AT_type(*$C$DW$T$11)
    1838        .dwattr $C$DW$107, DW_AT_name("RAM_PE_RAW")
    1839        .dwattr $C$DW$107, DW_AT_TI_symbol_name("RAM_PE_RAW")
    1840        .dwattr $C$DW$107, DW_AT_bit_offset(0x0c), DW_AT_bit_size(0x04)
    1841        .dwattr $C$DW$107, DW_AT_data_member_location[DW_OP_plus_uconst 0x0]
    1842        .dwattr $C$DW$107, DW_AT_accessibility(DW_ACCESS_public)
    1843        .dwattr $C$DW$107, DW_AT_decl_file("/usr/lib/ti/pru-software-support-package/include/am335x/pr
    1844        .dwattr $C$DW$107, DW_AT_decl_line(0x8b)
    1845        .dwattr $C$DW$107, DW_AT_decl_column(0x0d)
    1846$C$DW$108       .dwtag  DW_TAG_member
    1847        .dwattr $C$DW$108, DW_AT_type(*$C$DW$T$11)
    1848        .dwattr $C$DW$108, DW_AT_name("rsvd20")
    1849        .dwattr $C$DW$108, DW_AT_TI_symbol_name("rsvd20")
    1850        .dwattr $C$DW$108, DW_AT_bit_offset(0x00), DW_AT_bit_size(0x0c)
    1851        .dwattr $C$DW$108, DW_AT_data_member_location[DW_OP_plus_uconst 0x0]
PRU Assembler Unix v2.1.4 Sat Apr 14 23:23:22 2018

Tools Copyright (c) 2012-2015 Texas Instruments Incorporated
main1.asm                                                            PAGE   35

    1852        .dwattr $C$DW$108, DW_AT_accessibility(DW_ACCESS_public)
    1853        .dwattr $C$DW$108, DW_AT_decl_file("/usr/lib/ti/pru-software-support-package/include/am335x/pr
    1854        .dwattr $C$DW$108, DW_AT_decl_line(0x8c)
    1855        .dwattr $C$DW$108, DW_AT_decl_column(0x0d)
    1856        .dwendtag $C$DW$T$24
    1857
    1858        .dwattr $C$DW$T$24, DW_AT_decl_file("/usr/lib/ti/pru-software-support-package/include/am335x/p
    1859        .dwattr $C$DW$T$24, DW_AT_decl_line(0x86)
    1860        .dwattr $C$DW$T$24, DW_AT_decl_column(0x14)
    1861$C$DW$T$141     .dwtag  DW_TAG_volatile_type
    1862        .dwattr $C$DW$T$141, DW_AT_type(*$C$DW$T$24)
    1863
    1864$C$DW$T$25      .dwtag  DW_TAG_structure_type
    1865        .dwattr $C$DW$T$25, DW_AT_byte_size(0x04)
    1866$C$DW$109       .dwtag  DW_TAG_member
    1867        .dwattr $C$DW$109, DW_AT_type(*$C$DW$T$11)
    1868        .dwattr $C$DW$109, DW_AT_name("PRU0_IMEM_PE")
    1869        .dwattr $C$DW$109, DW_AT_TI_symbol_name("PRU0_IMEM_PE")
    1870        .dwattr $C$DW$109, DW_AT_bit_offset(0x1c), DW_AT_bit_size(0x04)
    1871        .dwattr $C$DW$109, DW_AT_data_member_location[DW_OP_plus_uconst 0x0]
    1872        .dwattr $C$DW$109, DW_AT_accessibility(DW_ACCESS_public)
    1873        .dwattr $C$DW$109, DW_AT_decl_file("/usr/lib/ti/pru-software-support-package/include/am335x/pr
    1874        .dwattr $C$DW$109, DW_AT_decl_line(0x96)
    1875        .dwattr $C$DW$109, DW_AT_decl_column(0x0d)
    1876$C$DW$110       .dwtag  DW_TAG_member
    1877        .dwattr $C$DW$110, DW_AT_type(*$C$DW$T$11)
    1878        .dwattr $C$DW$110, DW_AT_name("PRU0_DMEM_PE")
    1879        .dwattr $C$DW$110, DW_AT_TI_symbol_name("PRU0_DMEM_PE")
    1880        .dwattr $C$DW$110, DW_AT_bit_offset(0x18), DW_AT_bit_size(0x04)
    1881        .dwattr $C$DW$110, DW_AT_data_member_location[DW_OP_plus_uconst 0x0]
    1882        .dwattr $C$DW$110, DW_AT_accessibility(DW_ACCESS_public)
    1883        .dwattr $C$DW$110, DW_AT_decl_file("/usr/lib/ti/pru-software-support-package/include/am335x/pr
    1884        .dwattr $C$DW$110, DW_AT_decl_line(0x97)
    1885        .dwattr $C$DW$110, DW_AT_decl_column(0x0d)
    1886$C$DW$111       .dwtag  DW_TAG_member
    1887        .dwattr $C$DW$111, DW_AT_type(*$C$DW$T$11)
    1888        .dwattr $C$DW$111, DW_AT_name("PRU1_IMEM_PE")
    1889        .dwattr $C$DW$111, DW_AT_TI_symbol_name("PRU1_IMEM_PE")
    1890        .dwattr $C$DW$111, DW_AT_bit_offset(0x14), DW_AT_bit_size(0x04)
    1891        .dwattr $C$DW$111, DW_AT_data_member_location[DW_OP_plus_uconst 0x0]
    1892        .dwattr $C$DW$111, DW_AT_accessibility(DW_ACCESS_public)
    1893        .dwattr $C$DW$111, DW_AT_decl_file("/usr/lib/ti/pru-software-support-package/include/am335x/pr
    1894        .dwattr $C$DW$111, DW_AT_decl_line(0x98)
    1895        .dwattr $C$DW$111, DW_AT_decl_column(0x0d)
    1896$C$DW$112       .dwtag  DW_TAG_member
    1897        .dwattr $C$DW$112, DW_AT_type(*$C$DW$T$11)
    1898        .dwattr $C$DW$112, DW_AT_name("PRU1_DMEM_PE")
    1899        .dwattr $C$DW$112, DW_AT_TI_symbol_name("PRU1_DMEM_PE")
    1900        .dwattr $C$DW$112, DW_AT_bit_offset(0x10), DW_AT_bit_size(0x04)
    1901        .dwattr $C$DW$112, DW_AT_data_member_location[DW_OP_plus_uconst 0x0]
    1902        .dwattr $C$DW$112, DW_AT_accessibility(DW_ACCESS_public)
    1903        .dwattr $C$DW$112, DW_AT_decl_file("/usr/lib/ti/pru-software-support-package/include/am335x/pr
    1904        .dwattr $C$DW$112, DW_AT_decl_line(0x99)
    1905        .dwattr $C$DW$112, DW_AT_decl_column(0x0d)
    1906$C$DW$113       .dwtag  DW_TAG_member
PRU Assembler Unix v2.1.4 Sat Apr 14 23:23:22 2018

Tools Copyright (c) 2012-2015 Texas Instruments Incorporated
main1.asm                                                            PAGE   36

    1907        .dwattr $C$DW$113, DW_AT_type(*$C$DW$T$11)
    1908        .dwattr $C$DW$113, DW_AT_name("RAM_PE")
    1909        .dwattr $C$DW$113, DW_AT_TI_symbol_name("RAM_PE")
    1910        .dwattr $C$DW$113, DW_AT_bit_offset(0x0c), DW_AT_bit_size(0x04)
    1911        .dwattr $C$DW$113, DW_AT_data_member_location[DW_OP_plus_uconst 0x0]
    1912        .dwattr $C$DW$113, DW_AT_accessibility(DW_ACCESS_public)
    1913        .dwattr $C$DW$113, DW_AT_decl_file("/usr/lib/ti/pru-software-support-package/include/am335x/pr
    1914        .dwattr $C$DW$113, DW_AT_decl_line(0x9a)
    1915        .dwattr $C$DW$113, DW_AT_decl_column(0x0d)
    1916$C$DW$114       .dwtag  DW_TAG_member
    1917        .dwattr $C$DW$114, DW_AT_type(*$C$DW$T$11)
    1918        .dwattr $C$DW$114, DW_AT_name("rsvd20")
    1919        .dwattr $C$DW$114, DW_AT_TI_symbol_name("rsvd20")
    1920        .dwattr $C$DW$114, DW_AT_bit_offset(0x00), DW_AT_bit_size(0x0c)
    1921        .dwattr $C$DW$114, DW_AT_data_member_location[DW_OP_plus_uconst 0x0]
    1922        .dwattr $C$DW$114, DW_AT_accessibility(DW_ACCESS_public)
    1923        .dwattr $C$DW$114, DW_AT_decl_file("/usr/lib/ti/pru-software-support-package/include/am335x/pr
    1924        .dwattr $C$DW$114, DW_AT_decl_line(0x9b)
    1925        .dwattr $C$DW$114, DW_AT_decl_column(0x0d)
    1926        .dwendtag $C$DW$T$25
    1927
    1928        .dwattr $C$DW$T$25, DW_AT_decl_file("/usr/lib/ti/pru-software-support-package/include/am335x/p
    1929        .dwattr $C$DW$T$25, DW_AT_decl_line(0x95)
    1930        .dwattr $C$DW$T$25, DW_AT_decl_column(0x14)
    1931$C$DW$T$143     .dwtag  DW_TAG_volatile_type
    1932        .dwattr $C$DW$T$143, DW_AT_type(*$C$DW$T$25)
    1933
    1934$C$DW$T$26      .dwtag  DW_TAG_structure_type
    1935        .dwattr $C$DW$T$26, DW_AT_byte_size(0x04)
    1936$C$DW$115       .dwtag  DW_TAG_member
    1937        .dwattr $C$DW$115, DW_AT_type(*$C$DW$T$11)
    1938        .dwattr $C$DW$115, DW_AT_name("PRU0_IMEM_PE_SET")
    1939        .dwattr $C$DW$115, DW_AT_TI_symbol_name("PRU0_IMEM_PE_SET")
    1940        .dwattr $C$DW$115, DW_AT_bit_offset(0x1c), DW_AT_bit_size(0x04)
    1941        .dwattr $C$DW$115, DW_AT_data_member_location[DW_OP_plus_uconst 0x0]
    1942        .dwattr $C$DW$115, DW_AT_accessibility(DW_ACCESS_public)
    1943        .dwattr $C$DW$115, DW_AT_decl_file("/usr/lib/ti/pru-software-support-package/include/am335x/pr
    1944        .dwattr $C$DW$115, DW_AT_decl_line(0xa4)
    1945        .dwattr $C$DW$115, DW_AT_decl_column(0x0d)
    1946$C$DW$116       .dwtag  DW_TAG_member
    1947        .dwattr $C$DW$116, DW_AT_type(*$C$DW$T$11)
    1948        .dwattr $C$DW$116, DW_AT_name("PRU0_DMEM_PE_SET")
    1949        .dwattr $C$DW$116, DW_AT_TI_symbol_name("PRU0_DMEM_PE_SET")
    1950        .dwattr $C$DW$116, DW_AT_bit_offset(0x18), DW_AT_bit_size(0x04)
    1951        .dwattr $C$DW$116, DW_AT_data_member_location[DW_OP_plus_uconst 0x0]
    1952        .dwattr $C$DW$116, DW_AT_accessibility(DW_ACCESS_public)
    1953        .dwattr $C$DW$116, DW_AT_decl_file("/usr/lib/ti/pru-software-support-package/include/am335x/pr
    1954        .dwattr $C$DW$116, DW_AT_decl_line(0xa5)
    1955        .dwattr $C$DW$116, DW_AT_decl_column(0x0d)
    1956$C$DW$117       .dwtag  DW_TAG_member
    1957        .dwattr $C$DW$117, DW_AT_type(*$C$DW$T$11)
    1958        .dwattr $C$DW$117, DW_AT_name("PRU1_IMEM_PE_SET")
    1959        .dwattr $C$DW$117, DW_AT_TI_symbol_name("PRU1_IMEM_PE_SET")
    1960        .dwattr $C$DW$117, DW_AT_bit_offset(0x14), DW_AT_bit_size(0x04)
    1961        .dwattr $C$DW$117, DW_AT_data_member_location[DW_OP_plus_uconst 0x0]
PRU Assembler Unix v2.1.4 Sat Apr 14 23:23:22 2018

Tools Copyright (c) 2012-2015 Texas Instruments Incorporated
main1.asm                                                            PAGE   37

    1962        .dwattr $C$DW$117, DW_AT_accessibility(DW_ACCESS_public)
    1963        .dwattr $C$DW$117, DW_AT_decl_file("/usr/lib/ti/pru-software-support-package/include/am335x/pr
    1964        .dwattr $C$DW$117, DW_AT_decl_line(0xa6)
    1965        .dwattr $C$DW$117, DW_AT_decl_column(0x0d)
    1966$C$DW$118       .dwtag  DW_TAG_member
    1967        .dwattr $C$DW$118, DW_AT_type(*$C$DW$T$11)
    1968        .dwattr $C$DW$118, DW_AT_name("PRU1_DMEM_PE_SET")
    1969        .dwattr $C$DW$118, DW_AT_TI_symbol_name("PRU1_DMEM_PE_SET")
    1970        .dwattr $C$DW$118, DW_AT_bit_offset(0x10), DW_AT_bit_size(0x04)
    1971        .dwattr $C$DW$118, DW_AT_data_member_location[DW_OP_plus_uconst 0x0]
    1972        .dwattr $C$DW$118, DW_AT_accessibility(DW_ACCESS_public)
    1973        .dwattr $C$DW$118, DW_AT_decl_file("/usr/lib/ti/pru-software-support-package/include/am335x/pr
    1974        .dwattr $C$DW$118, DW_AT_decl_line(0xa7)
    1975        .dwattr $C$DW$118, DW_AT_decl_column(0x0d)
    1976$C$DW$119       .dwtag  DW_TAG_member
    1977        .dwattr $C$DW$119, DW_AT_type(*$C$DW$T$11)
    1978        .dwattr $C$DW$119, DW_AT_name("RAM_PE_SET")
    1979        .dwattr $C$DW$119, DW_AT_TI_symbol_name("RAM_PE_SET")
    1980        .dwattr $C$DW$119, DW_AT_bit_offset(0x0c), DW_AT_bit_size(0x04)
    1981        .dwattr $C$DW$119, DW_AT_data_member_location[DW_OP_plus_uconst 0x0]
    1982        .dwattr $C$DW$119, DW_AT_accessibility(DW_ACCESS_public)
    1983        .dwattr $C$DW$119, DW_AT_decl_file("/usr/lib/ti/pru-software-support-package/include/am335x/pr
    1984        .dwattr $C$DW$119, DW_AT_decl_line(0xa8)
    1985        .dwattr $C$DW$119, DW_AT_decl_column(0x0d)
    1986$C$DW$120       .dwtag  DW_TAG_member
    1987        .dwattr $C$DW$120, DW_AT_type(*$C$DW$T$11)
    1988        .dwattr $C$DW$120, DW_AT_name("rsvd20")
    1989        .dwattr $C$DW$120, DW_AT_TI_symbol_name("rsvd20")
    1990        .dwattr $C$DW$120, DW_AT_bit_offset(0x00), DW_AT_bit_size(0x0c)
    1991        .dwattr $C$DW$120, DW_AT_data_member_location[DW_OP_plus_uconst 0x0]
    1992        .dwattr $C$DW$120, DW_AT_accessibility(DW_ACCESS_public)
    1993        .dwattr $C$DW$120, DW_AT_decl_file("/usr/lib/ti/pru-software-support-package/include/am335x/pr
    1994        .dwattr $C$DW$120, DW_AT_decl_line(0xa9)
    1995        .dwattr $C$DW$120, DW_AT_decl_column(0x0d)
    1996        .dwendtag $C$DW$T$26
    1997
    1998        .dwattr $C$DW$T$26, DW_AT_decl_file("/usr/lib/ti/pru-software-support-package/include/am335x/p
    1999        .dwattr $C$DW$T$26, DW_AT_decl_line(0xa3)
    2000        .dwattr $C$DW$T$26, DW_AT_decl_column(0x13)
    2001$C$DW$T$145     .dwtag  DW_TAG_volatile_type
    2002        .dwattr $C$DW$T$145, DW_AT_type(*$C$DW$T$26)
    2003
    2004$C$DW$T$27      .dwtag  DW_TAG_structure_type
    2005        .dwattr $C$DW$T$27, DW_AT_byte_size(0x04)
    2006$C$DW$121       .dwtag  DW_TAG_member
    2007        .dwattr $C$DW$121, DW_AT_type(*$C$DW$T$11)
    2008        .dwattr $C$DW$121, DW_AT_name("PRU0_IMEM_PE_CLR")
    2009        .dwattr $C$DW$121, DW_AT_TI_symbol_name("PRU0_IMEM_PE_CLR")
    2010        .dwattr $C$DW$121, DW_AT_bit_offset(0x1c), DW_AT_bit_size(0x04)
    2011        .dwattr $C$DW$121, DW_AT_data_member_location[DW_OP_plus_uconst 0x0]
    2012        .dwattr $C$DW$121, DW_AT_accessibility(DW_ACCESS_public)
    2013        .dwattr $C$DW$121, DW_AT_decl_file("/usr/lib/ti/pru-software-support-package/include/am335x/pr
    2014        .dwattr $C$DW$121, DW_AT_decl_line(0xb3)
    2015        .dwattr $C$DW$121, DW_AT_decl_column(0x0d)
    2016$C$DW$122       .dwtag  DW_TAG_member
PRU Assembler Unix v2.1.4 Sat Apr 14 23:23:22 2018

Tools Copyright (c) 2012-2015 Texas Instruments Incorporated
main1.asm                                                            PAGE   38

    2017        .dwattr $C$DW$122, DW_AT_type(*$C$DW$T$11)
    2018        .dwattr $C$DW$122, DW_AT_name("PRU0_DMEM_PE_CLR")
    2019        .dwattr $C$DW$122, DW_AT_TI_symbol_name("PRU0_DMEM_PE_CLR")
    2020        .dwattr $C$DW$122, DW_AT_bit_offset(0x18), DW_AT_bit_size(0x04)
    2021        .dwattr $C$DW$122, DW_AT_data_member_location[DW_OP_plus_uconst 0x0]
    2022        .dwattr $C$DW$122, DW_AT_accessibility(DW_ACCESS_public)
    2023        .dwattr $C$DW$122, DW_AT_decl_file("/usr/lib/ti/pru-software-support-package/include/am335x/pr
    2024        .dwattr $C$DW$122, DW_AT_decl_line(0xb4)
    2025        .dwattr $C$DW$122, DW_AT_decl_column(0x0d)
    2026$C$DW$123       .dwtag  DW_TAG_member
    2027        .dwattr $C$DW$123, DW_AT_type(*$C$DW$T$11)
    2028        .dwattr $C$DW$123, DW_AT_name("PRU1_IMEM_PE_CLR")
    2029        .dwattr $C$DW$123, DW_AT_TI_symbol_name("PRU1_IMEM_PE_CLR")
    2030        .dwattr $C$DW$123, DW_AT_bit_offset(0x14), DW_AT_bit_size(0x04)
    2031        .dwattr $C$DW$123, DW_AT_data_member_location[DW_OP_plus_uconst 0x0]
    2032        .dwattr $C$DW$123, DW_AT_accessibility(DW_ACCESS_public)
    2033        .dwattr $C$DW$123, DW_AT_decl_file("/usr/lib/ti/pru-software-support-package/include/am335x/pr
    2034        .dwattr $C$DW$123, DW_AT_decl_line(0xb5)
    2035        .dwattr $C$DW$123, DW_AT_decl_column(0x0d)
    2036$C$DW$124       .dwtag  DW_TAG_member
    2037        .dwattr $C$DW$124, DW_AT_type(*$C$DW$T$11)
    2038        .dwattr $C$DW$124, DW_AT_name("PRU1_DMEM_PE_CLR")
    2039        .dwattr $C$DW$124, DW_AT_TI_symbol_name("PRU1_DMEM_PE_CLR")
    2040        .dwattr $C$DW$124, DW_AT_bit_offset(0x10), DW_AT_bit_size(0x04)
    2041        .dwattr $C$DW$124, DW_AT_data_member_location[DW_OP_plus_uconst 0x0]
    2042        .dwattr $C$DW$124, DW_AT_accessibility(DW_ACCESS_public)
    2043        .dwattr $C$DW$124, DW_AT_decl_file("/usr/lib/ti/pru-software-support-package/include/am335x/pr
    2044        .dwattr $C$DW$124, DW_AT_decl_line(0xb6)
    2045        .dwattr $C$DW$124, DW_AT_decl_column(0x0d)
    2046$C$DW$125       .dwtag  DW_TAG_member
    2047        .dwattr $C$DW$125, DW_AT_type(*$C$DW$T$11)
    2048        .dwattr $C$DW$125, DW_AT_name("rsvd16")
    2049        .dwattr $C$DW$125, DW_AT_TI_symbol_name("rsvd16")
    2050        .dwattr $C$DW$125, DW_AT_bit_offset(0x00), DW_AT_bit_size(0x10)
    2051        .dwattr $C$DW$125, DW_AT_data_member_location[DW_OP_plus_uconst 0x0]
    2052        .dwattr $C$DW$125, DW_AT_accessibility(DW_ACCESS_public)
    2053        .dwattr $C$DW$125, DW_AT_decl_file("/usr/lib/ti/pru-software-support-package/include/am335x/pr
    2054        .dwattr $C$DW$125, DW_AT_decl_line(0xb7)
    2055        .dwattr $C$DW$125, DW_AT_decl_column(0x0d)
    2056        .dwendtag $C$DW$T$27
    2057
    2058        .dwattr $C$DW$T$27, DW_AT_decl_file("/usr/lib/ti/pru-software-support-package/include/am335x/p
    2059        .dwattr $C$DW$T$27, DW_AT_decl_line(0xb2)
    2060        .dwattr $C$DW$T$27, DW_AT_decl_column(0x13)
    2061$C$DW$T$147     .dwtag  DW_TAG_volatile_type
    2062        .dwattr $C$DW$T$147, DW_AT_type(*$C$DW$T$27)
    2063
    2064$C$DW$T$28      .dwtag  DW_TAG_structure_type
    2065        .dwattr $C$DW$T$28, DW_AT_byte_size(0x04)
    2066$C$DW$126       .dwtag  DW_TAG_member
    2067        .dwattr $C$DW$126, DW_AT_type(*$C$DW$T$11)
    2068        .dwattr $C$DW$126, DW_AT_name("PMAO_PRU0")
    2069        .dwattr $C$DW$126, DW_AT_TI_symbol_name("PMAO_PRU0")
    2070        .dwattr $C$DW$126, DW_AT_bit_offset(0x1f), DW_AT_bit_size(0x01)
    2071        .dwattr $C$DW$126, DW_AT_data_member_location[DW_OP_plus_uconst 0x0]
PRU Assembler Unix v2.1.4 Sat Apr 14 23:23:22 2018

Tools Copyright (c) 2012-2015 Texas Instruments Incorporated
main1.asm                                                            PAGE   39

    2072        .dwattr $C$DW$126, DW_AT_accessibility(DW_ACCESS_public)
    2073        .dwattr $C$DW$126, DW_AT_decl_file("/usr/lib/ti/pru-software-support-package/include/am335x/pr
    2074        .dwattr $C$DW$126, DW_AT_decl_line(0xc4)
    2075        .dwattr $C$DW$126, DW_AT_decl_column(0x0d)
    2076$C$DW$127       .dwtag  DW_TAG_member
    2077        .dwattr $C$DW$127, DW_AT_type(*$C$DW$T$11)
    2078        .dwattr $C$DW$127, DW_AT_name("PMAO_PRU1")
    2079        .dwattr $C$DW$127, DW_AT_TI_symbol_name("PMAO_PRU1")
    2080        .dwattr $C$DW$127, DW_AT_bit_offset(0x1e), DW_AT_bit_size(0x01)
    2081        .dwattr $C$DW$127, DW_AT_data_member_location[DW_OP_plus_uconst 0x0]
    2082        .dwattr $C$DW$127, DW_AT_accessibility(DW_ACCESS_public)
    2083        .dwattr $C$DW$127, DW_AT_decl_file("/usr/lib/ti/pru-software-support-package/include/am335x/pr
    2084        .dwattr $C$DW$127, DW_AT_decl_line(0xc5)
    2085        .dwattr $C$DW$127, DW_AT_decl_column(0x0d)
    2086$C$DW$128       .dwtag  DW_TAG_member
    2087        .dwattr $C$DW$128, DW_AT_type(*$C$DW$T$11)
    2088        .dwattr $C$DW$128, DW_AT_name("rsvd2")
    2089        .dwattr $C$DW$128, DW_AT_TI_symbol_name("rsvd2")
    2090        .dwattr $C$DW$128, DW_AT_bit_offset(0x00), DW_AT_bit_size(0x1e)
    2091        .dwattr $C$DW$128, DW_AT_data_member_location[DW_OP_plus_uconst 0x0]
    2092        .dwattr $C$DW$128, DW_AT_accessibility(DW_ACCESS_public)
    2093        .dwattr $C$DW$128, DW_AT_decl_file("/usr/lib/ti/pru-software-support-package/include/am335x/pr
    2094        .dwattr $C$DW$128, DW_AT_decl_line(0xc6)
    2095        .dwattr $C$DW$128, DW_AT_decl_column(0x0d)
    2096        .dwendtag $C$DW$T$28
    2097
    2098        .dwattr $C$DW$T$28, DW_AT_decl_file("/usr/lib/ti/pru-software-support-package/include/am335x/p
    2099        .dwattr $C$DW$T$28, DW_AT_decl_line(0xc3)
    2100        .dwattr $C$DW$T$28, DW_AT_decl_column(0x13)
    2101$C$DW$T$149     .dwtag  DW_TAG_volatile_type
    2102        .dwattr $C$DW$T$149, DW_AT_type(*$C$DW$T$28)
    2103
    2104$C$DW$T$29      .dwtag  DW_TAG_structure_type
    2105        .dwattr $C$DW$T$29, DW_AT_byte_size(0x04)
    2106$C$DW$129       .dwtag  DW_TAG_member
    2107        .dwattr $C$DW$129, DW_AT_type(*$C$DW$T$11)
    2108        .dwattr $C$DW$129, DW_AT_name("OCP_EN")
    2109        .dwattr $C$DW$129, DW_AT_TI_symbol_name("OCP_EN")
    2110        .dwattr $C$DW$129, DW_AT_bit_offset(0x1f), DW_AT_bit_size(0x01)
    2111        .dwattr $C$DW$129, DW_AT_data_member_location[DW_OP_plus_uconst 0x0]
    2112        .dwattr $C$DW$129, DW_AT_accessibility(DW_ACCESS_public)
    2113        .dwattr $C$DW$129, DW_AT_decl_file("/usr/lib/ti/pru-software-support-package/include/am335x/pr
    2114        .dwattr $C$DW$129, DW_AT_decl_line(0xd3)
    2115        .dwattr $C$DW$129, DW_AT_decl_column(0x0d)
    2116$C$DW$130       .dwtag  DW_TAG_member
    2117        .dwattr $C$DW$130, DW_AT_type(*$C$DW$T$11)
    2118        .dwattr $C$DW$130, DW_AT_name("rsvd1")
    2119        .dwattr $C$DW$130, DW_AT_TI_symbol_name("rsvd1")
    2120        .dwattr $C$DW$130, DW_AT_bit_offset(0x00), DW_AT_bit_size(0x1f)
    2121        .dwattr $C$DW$130, DW_AT_data_member_location[DW_OP_plus_uconst 0x0]
    2122        .dwattr $C$DW$130, DW_AT_accessibility(DW_ACCESS_public)
    2123        .dwattr $C$DW$130, DW_AT_decl_file("/usr/lib/ti/pru-software-support-package/include/am335x/pr
    2124        .dwattr $C$DW$130, DW_AT_decl_line(0xd4)
    2125        .dwattr $C$DW$130, DW_AT_decl_column(0x0d)
    2126        .dwendtag $C$DW$T$29
PRU Assembler Unix v2.1.4 Sat Apr 14 23:23:22 2018

Tools Copyright (c) 2012-2015 Texas Instruments Incorporated
main1.asm                                                            PAGE   40

    2127
    2128        .dwattr $C$DW$T$29, DW_AT_decl_file("/usr/lib/ti/pru-software-support-package/include/am335x/p
    2129        .dwattr $C$DW$T$29, DW_AT_decl_line(0xd2)
    2130        .dwattr $C$DW$T$29, DW_AT_decl_column(0x13)
    2131$C$DW$T$151     .dwtag  DW_TAG_volatile_type
    2132        .dwattr $C$DW$T$151, DW_AT_type(*$C$DW$T$29)
    2133
    2134$C$DW$T$30      .dwtag  DW_TAG_structure_type
    2135        .dwattr $C$DW$T$30, DW_AT_byte_size(0x04)
    2136$C$DW$131       .dwtag  DW_TAG_member
    2137        .dwattr $C$DW$131, DW_AT_type(*$C$DW$T$11)
    2138        .dwattr $C$DW$131, DW_AT_name("PRU1_PAD_HP_EN")
    2139        .dwattr $C$DW$131, DW_AT_TI_symbol_name("PRU1_PAD_HP_EN")
    2140        .dwattr $C$DW$131, DW_AT_bit_offset(0x1f), DW_AT_bit_size(0x01)
    2141        .dwattr $C$DW$131, DW_AT_data_member_location[DW_OP_plus_uconst 0x0]
    2142        .dwattr $C$DW$131, DW_AT_accessibility(DW_ACCESS_public)
    2143        .dwattr $C$DW$131, DW_AT_decl_file("/usr/lib/ti/pru-software-support-package/include/am335x/pr
    2144        .dwattr $C$DW$131, DW_AT_decl_line(0xde)
    2145        .dwattr $C$DW$131, DW_AT_decl_column(0x0d)
    2146$C$DW$132       .dwtag  DW_TAG_member
    2147        .dwattr $C$DW$132, DW_AT_type(*$C$DW$T$11)
    2148        .dwattr $C$DW$132, DW_AT_name("XFR_SHIFT_EN")
    2149        .dwattr $C$DW$132, DW_AT_TI_symbol_name("XFR_SHIFT_EN")
    2150        .dwattr $C$DW$132, DW_AT_bit_offset(0x1e), DW_AT_bit_size(0x01)
    2151        .dwattr $C$DW$132, DW_AT_data_member_location[DW_OP_plus_uconst 0x0]
    2152        .dwattr $C$DW$132, DW_AT_accessibility(DW_ACCESS_public)
    2153        .dwattr $C$DW$132, DW_AT_decl_file("/usr/lib/ti/pru-software-support-package/include/am335x/pr
    2154        .dwattr $C$DW$132, DW_AT_decl_line(0xdf)
    2155        .dwattr $C$DW$132, DW_AT_decl_column(0x0d)
    2156$C$DW$133       .dwtag  DW_TAG_member
    2157        .dwattr $C$DW$133, DW_AT_type(*$C$DW$T$11)
    2158        .dwattr $C$DW$133, DW_AT_name("rsvd2")
    2159        .dwattr $C$DW$133, DW_AT_TI_symbol_name("rsvd2")
    2160        .dwattr $C$DW$133, DW_AT_bit_offset(0x00), DW_AT_bit_size(0x1e)
    2161        .dwattr $C$DW$133, DW_AT_data_member_location[DW_OP_plus_uconst 0x0]
    2162        .dwattr $C$DW$133, DW_AT_accessibility(DW_ACCESS_public)
    2163        .dwattr $C$DW$133, DW_AT_decl_file("/usr/lib/ti/pru-software-support-package/include/am335x/pr
    2164        .dwattr $C$DW$133, DW_AT_decl_line(0xe0)
    2165        .dwattr $C$DW$133, DW_AT_decl_column(0x0d)
    2166        .dwendtag $C$DW$T$30
    2167
    2168        .dwattr $C$DW$T$30, DW_AT_decl_file("/usr/lib/ti/pru-software-support-package/include/am335x/p
    2169        .dwattr $C$DW$T$30, DW_AT_decl_line(0xdd)
    2170        .dwattr $C$DW$T$30, DW_AT_decl_column(0x13)
    2171$C$DW$T$153     .dwtag  DW_TAG_volatile_type
    2172        .dwattr $C$DW$T$153, DW_AT_type(*$C$DW$T$30)
    2173
    2174$C$DW$T$31      .dwtag  DW_TAG_structure_type
    2175        .dwattr $C$DW$T$31, DW_AT_byte_size(0x04)
    2176$C$DW$134       .dwtag  DW_TAG_member
    2177        .dwattr $C$DW$134, DW_AT_type(*$C$DW$T$11)
    2178        .dwattr $C$DW$134, DW_AT_name("PIN_MUX_SEL")
    2179        .dwattr $C$DW$134, DW_AT_TI_symbol_name("PIN_MUX_SEL")
    2180        .dwattr $C$DW$134, DW_AT_bit_offset(0x18), DW_AT_bit_size(0x08)
    2181        .dwattr $C$DW$134, DW_AT_data_member_location[DW_OP_plus_uconst 0x0]
PRU Assembler Unix v2.1.4 Sat Apr 14 23:23:22 2018

Tools Copyright (c) 2012-2015 Texas Instruments Incorporated
main1.asm                                                            PAGE   41

    2182        .dwattr $C$DW$134, DW_AT_accessibility(DW_ACCESS_public)
    2183        .dwattr $C$DW$134, DW_AT_decl_file("/usr/lib/ti/pru-software-support-package/include/am335x/pr
    2184        .dwattr $C$DW$134, DW_AT_decl_line(0xec)
    2185        .dwattr $C$DW$134, DW_AT_decl_column(0x0d)
    2186$C$DW$135       .dwtag  DW_TAG_member
    2187        .dwattr $C$DW$135, DW_AT_type(*$C$DW$T$11)
    2188        .dwattr $C$DW$135, DW_AT_name("rsvd2")
    2189        .dwattr $C$DW$135, DW_AT_TI_symbol_name("rsvd2")
    2190        .dwattr $C$DW$135, DW_AT_bit_offset(0x00), DW_AT_bit_size(0x18)
    2191        .dwattr $C$DW$135, DW_AT_data_member_location[DW_OP_plus_uconst 0x0]
    2192        .dwattr $C$DW$135, DW_AT_accessibility(DW_ACCESS_public)
    2193        .dwattr $C$DW$135, DW_AT_decl_file("/usr/lib/ti/pru-software-support-package/include/am335x/pr
    2194        .dwattr $C$DW$135, DW_AT_decl_line(0xed)
    2195        .dwattr $C$DW$135, DW_AT_decl_column(0x0d)
    2196        .dwendtag $C$DW$T$31
    2197
    2198        .dwattr $C$DW$T$31, DW_AT_decl_file("/usr/lib/ti/pru-software-support-package/include/am335x/p
    2199        .dwattr $C$DW$T$31, DW_AT_decl_line(0xeb)
    2200        .dwattr $C$DW$T$31, DW_AT_decl_column(0x13)
    2201$C$DW$T$155     .dwtag  DW_TAG_volatile_type
    2202        .dwattr $C$DW$T$155, DW_AT_type(*$C$DW$T$31)
    2203
    2204$C$DW$T$35      .dwtag  DW_TAG_structure_type
    2205        .dwattr $C$DW$T$35, DW_AT_byte_size(0x44)
    2206$C$DW$136       .dwtag  DW_TAG_member
    2207        .dwattr $C$DW$136, DW_AT_type(*$C$DW$T$132)
    2208        .dwattr $C$DW$136, DW_AT_name("$P$T0")
    2209        .dwattr $C$DW$136, DW_AT_TI_symbol_name("$P$T0")
    2210        .dwattr $C$DW$136, DW_AT_data_member_location[DW_OP_plus_uconst 0x0]
    2211        .dwattr $C$DW$136, DW_AT_accessibility(DW_ACCESS_public)
    2212        .dwattr $C$DW$136, DW_AT_decl_file("/usr/lib/ti/pru-software-support-package/include/am335x/pr
    2213        .dwattr $C$DW$136, DW_AT_decl_line(0x29)
    2214        .dwattr $C$DW$136, DW_AT_decl_column(0x02)
    2215$C$DW$137       .dwtag  DW_TAG_member
    2216        .dwattr $C$DW$137, DW_AT_type(*$C$DW$T$134)
    2217        .dwattr $C$DW$137, DW_AT_name("$P$T1")
    2218        .dwattr $C$DW$137, DW_AT_TI_symbol_name("$P$T1")
    2219        .dwattr $C$DW$137, DW_AT_data_member_location[DW_OP_plus_uconst 0x4]
    2220        .dwattr $C$DW$137, DW_AT_accessibility(DW_ACCESS_public)
    2221        .dwattr $C$DW$137, DW_AT_decl_file("/usr/lib/ti/pru-software-support-package/include/am335x/pr
    2222        .dwattr $C$DW$137, DW_AT_decl_line(0x33)
    2223        .dwattr $C$DW$137, DW_AT_decl_column(0x02)
    2224$C$DW$138       .dwtag  DW_TAG_member
    2225        .dwattr $C$DW$138, DW_AT_type(*$C$DW$T$136)
    2226        .dwattr $C$DW$138, DW_AT_name("$P$T2")
    2227        .dwattr $C$DW$138, DW_AT_TI_symbol_name("$P$T2")
    2228        .dwattr $C$DW$138, DW_AT_data_member_location[DW_OP_plus_uconst 0x8]
    2229        .dwattr $C$DW$138, DW_AT_accessibility(DW_ACCESS_public)
    2230        .dwattr $C$DW$138, DW_AT_decl_file("/usr/lib/ti/pru-software-support-package/include/am335x/pr
    2231        .dwattr $C$DW$138, DW_AT_decl_line(0x41)
    2232        .dwattr $C$DW$138, DW_AT_decl_column(0x02)
    2233$C$DW$139       .dwtag  DW_TAG_member
    2234        .dwattr $C$DW$139, DW_AT_type(*$C$DW$T$138)
    2235        .dwattr $C$DW$139, DW_AT_name("$P$T3")
    2236        .dwattr $C$DW$139, DW_AT_TI_symbol_name("$P$T3")
PRU Assembler Unix v2.1.4 Sat Apr 14 23:23:22 2018

Tools Copyright (c) 2012-2015 Texas Instruments Incorporated
main1.asm                                                            PAGE   42

    2237        .dwattr $C$DW$139, DW_AT_data_member_location[DW_OP_plus_uconst 0xc]
    2238        .dwattr $C$DW$139, DW_AT_accessibility(DW_ACCESS_public)
    2239        .dwattr $C$DW$139, DW_AT_decl_file("/usr/lib/ti/pru-software-support-package/include/am335x/pr
    2240        .dwattr $C$DW$139, DW_AT_decl_line(0x54)
    2241        .dwattr $C$DW$139, DW_AT_decl_column(0x02)
    2242$C$DW$140       .dwtag  DW_TAG_member
    2243        .dwattr $C$DW$140, DW_AT_type(*$C$DW$T$140)
    2244        .dwattr $C$DW$140, DW_AT_name("$P$T4")
    2245        .dwattr $C$DW$140, DW_AT_TI_symbol_name("$P$T4")
    2246        .dwattr $C$DW$140, DW_AT_data_member_location[DW_OP_plus_uconst 0x10]
    2247        .dwattr $C$DW$140, DW_AT_accessibility(DW_ACCESS_public)
    2248        .dwattr $C$DW$140, DW_AT_decl_file("/usr/lib/ti/pru-software-support-package/include/am335x/pr
    2249        .dwattr $C$DW$140, DW_AT_decl_line(0x67)
    2250        .dwattr $C$DW$140, DW_AT_decl_column(0x02)
    2251$C$DW$141       .dwtag  DW_TAG_member
    2252        .dwattr $C$DW$141, DW_AT_type(*$C$DW$T$142)
    2253        .dwattr $C$DW$141, DW_AT_name("$P$T5")
    2254        .dwattr $C$DW$141, DW_AT_TI_symbol_name("$P$T5")
    2255        .dwattr $C$DW$141, DW_AT_data_member_location[DW_OP_plus_uconst 0x14]
    2256        .dwattr $C$DW$141, DW_AT_accessibility(DW_ACCESS_public)
    2257        .dwattr $C$DW$141, DW_AT_decl_file("/usr/lib/ti/pru-software-support-package/include/am335x/pr
    2258        .dwattr $C$DW$141, DW_AT_decl_line(0x83)
    2259        .dwattr $C$DW$141, DW_AT_decl_column(0x02)
    2260$C$DW$142       .dwtag  DW_TAG_member
    2261        .dwattr $C$DW$142, DW_AT_type(*$C$DW$T$144)
    2262        .dwattr $C$DW$142, DW_AT_name("$P$T6")
    2263        .dwattr $C$DW$142, DW_AT_TI_symbol_name("$P$T6")
    2264        .dwattr $C$DW$142, DW_AT_data_member_location[DW_OP_plus_uconst 0x18]
    2265        .dwattr $C$DW$142, DW_AT_accessibility(DW_ACCESS_public)
    2266        .dwattr $C$DW$142, DW_AT_decl_file("/usr/lib/ti/pru-software-support-package/include/am335x/pr
    2267        .dwattr $C$DW$142, DW_AT_decl_line(0x92)
    2268        .dwattr $C$DW$142, DW_AT_decl_column(0x02)
    2269$C$DW$143       .dwtag  DW_TAG_member
    2270        .dwattr $C$DW$143, DW_AT_type(*$C$DW$T$146)
    2271        .dwattr $C$DW$143, DW_AT_name("$P$T7")
    2272        .dwattr $C$DW$143, DW_AT_TI_symbol_name("$P$T7")
    2273        .dwattr $C$DW$143, DW_AT_data_member_location[DW_OP_plus_uconst 0x1c]
    2274        .dwattr $C$DW$143, DW_AT_accessibility(DW_ACCESS_public)
    2275        .dwattr $C$DW$143, DW_AT_decl_file("/usr/lib/ti/pru-software-support-package/include/am335x/pr
    2276        .dwattr $C$DW$143, DW_AT_decl_line(0xa0)
    2277        .dwattr $C$DW$143, DW_AT_decl_column(0x02)
    2278$C$DW$144       .dwtag  DW_TAG_member
    2279        .dwattr $C$DW$144, DW_AT_type(*$C$DW$T$148)
    2280        .dwattr $C$DW$144, DW_AT_name("$P$T8")
    2281        .dwattr $C$DW$144, DW_AT_TI_symbol_name("$P$T8")
    2282        .dwattr $C$DW$144, DW_AT_data_member_location[DW_OP_plus_uconst 0x20]
    2283        .dwattr $C$DW$144, DW_AT_accessibility(DW_ACCESS_public)
    2284        .dwattr $C$DW$144, DW_AT_decl_file("/usr/lib/ti/pru-software-support-package/include/am335x/pr
    2285        .dwattr $C$DW$144, DW_AT_decl_line(0xaf)
    2286        .dwattr $C$DW$144, DW_AT_decl_column(0x02)
    2287$C$DW$145       .dwtag  DW_TAG_member
    2288        .dwattr $C$DW$145, DW_AT_type(*$C$DW$T$32)
    2289        .dwattr $C$DW$145, DW_AT_name("rsvd24")
    2290        .dwattr $C$DW$145, DW_AT_TI_symbol_name("rsvd24")
    2291        .dwattr $C$DW$145, DW_AT_data_member_location[DW_OP_plus_uconst 0x24]
PRU Assembler Unix v2.1.4 Sat Apr 14 23:23:22 2018

Tools Copyright (c) 2012-2015 Texas Instruments Incorporated
main1.asm                                                            PAGE   43

    2292        .dwattr $C$DW$145, DW_AT_accessibility(DW_ACCESS_public)
    2293        .dwattr $C$DW$145, DW_AT_decl_file("/usr/lib/ti/pru-software-support-package/include/am335x/pr
    2294        .dwattr $C$DW$145, DW_AT_decl_line(0xbc)
    2295        .dwattr $C$DW$145, DW_AT_decl_column(0x0b)
    2296$C$DW$146       .dwtag  DW_TAG_member
    2297        .dwattr $C$DW$146, DW_AT_type(*$C$DW$T$150)
    2298        .dwattr $C$DW$146, DW_AT_name("$P$T9")
    2299        .dwattr $C$DW$146, DW_AT_TI_symbol_name("$P$T9")
    2300        .dwattr $C$DW$146, DW_AT_data_member_location[DW_OP_plus_uconst 0x28]
    2301        .dwattr $C$DW$146, DW_AT_accessibility(DW_ACCESS_public)
    2302        .dwattr $C$DW$146, DW_AT_decl_file("/usr/lib/ti/pru-software-support-package/include/am335x/pr
    2303        .dwattr $C$DW$146, DW_AT_decl_line(0xc0)
    2304        .dwattr $C$DW$146, DW_AT_decl_column(0x02)
    2305$C$DW$147       .dwtag  DW_TAG_member
    2306        .dwattr $C$DW$147, DW_AT_type(*$C$DW$T$33)
    2307        .dwattr $C$DW$147, DW_AT_name("rsvd2c")
    2308        .dwattr $C$DW$147, DW_AT_TI_symbol_name("rsvd2c")
    2309        .dwattr $C$DW$147, DW_AT_data_member_location[DW_OP_plus_uconst 0x2c]
    2310        .dwattr $C$DW$147, DW_AT_accessibility(DW_ACCESS_public)
    2311        .dwattr $C$DW$147, DW_AT_decl_file("/usr/lib/ti/pru-software-support-package/include/am335x/pr
    2312        .dwattr $C$DW$147, DW_AT_decl_line(0xcb)
    2313        .dwattr $C$DW$147, DW_AT_decl_column(0x0b)
    2314$C$DW$148       .dwtag  DW_TAG_member
    2315        .dwattr $C$DW$148, DW_AT_type(*$C$DW$T$152)
    2316        .dwattr $C$DW$148, DW_AT_name("$P$T10")
    2317        .dwattr $C$DW$148, DW_AT_TI_symbol_name("$P$T10")
    2318        .dwattr $C$DW$148, DW_AT_data_member_location[DW_OP_plus_uconst 0x30]
    2319        .dwattr $C$DW$148, DW_AT_accessibility(DW_ACCESS_public)
    2320        .dwattr $C$DW$148, DW_AT_decl_file("/usr/lib/ti/pru-software-support-package/include/am335x/pr
    2321        .dwattr $C$DW$148, DW_AT_decl_line(0xcf)
    2322        .dwattr $C$DW$148, DW_AT_decl_column(0x02)
    2323$C$DW$149       .dwtag  DW_TAG_member
    2324        .dwattr $C$DW$149, DW_AT_type(*$C$DW$T$154)
    2325        .dwattr $C$DW$149, DW_AT_name("$P$T11")
    2326        .dwattr $C$DW$149, DW_AT_TI_symbol_name("$P$T11")
    2327        .dwattr $C$DW$149, DW_AT_data_member_location[DW_OP_plus_uconst 0x34]
    2328        .dwattr $C$DW$149, DW_AT_accessibility(DW_ACCESS_public)
    2329        .dwattr $C$DW$149, DW_AT_decl_file("/usr/lib/ti/pru-software-support-package/include/am335x/pr
    2330        .dwattr $C$DW$149, DW_AT_decl_line(0xda)
    2331        .dwattr $C$DW$149, DW_AT_decl_column(0x02)
    2332$C$DW$150       .dwtag  DW_TAG_member
    2333        .dwattr $C$DW$150, DW_AT_type(*$C$DW$T$34)
    2334        .dwattr $C$DW$150, DW_AT_name("rsvd38")
    2335        .dwattr $C$DW$150, DW_AT_TI_symbol_name("rsvd38")
    2336        .dwattr $C$DW$150, DW_AT_data_member_location[DW_OP_plus_uconst 0x38]
    2337        .dwattr $C$DW$150, DW_AT_accessibility(DW_ACCESS_public)
    2338        .dwattr $C$DW$150, DW_AT_decl_file("/usr/lib/ti/pru-software-support-package/include/am335x/pr
    2339        .dwattr $C$DW$150, DW_AT_decl_line(0xe5)
    2340        .dwattr $C$DW$150, DW_AT_decl_column(0x0b)
    2341$C$DW$151       .dwtag  DW_TAG_member
    2342        .dwattr $C$DW$151, DW_AT_type(*$C$DW$T$156)
    2343        .dwattr $C$DW$151, DW_AT_name("$P$T12")
    2344        .dwattr $C$DW$151, DW_AT_TI_symbol_name("$P$T12")
    2345        .dwattr $C$DW$151, DW_AT_data_member_location[DW_OP_plus_uconst 0x40]
    2346        .dwattr $C$DW$151, DW_AT_accessibility(DW_ACCESS_public)
PRU Assembler Unix v2.1.4 Sat Apr 14 23:23:22 2018

Tools Copyright (c) 2012-2015 Texas Instruments Incorporated
main1.asm                                                            PAGE   44

    2347        .dwattr $C$DW$151, DW_AT_decl_file("/usr/lib/ti/pru-software-support-package/include/am335x/pr
    2348        .dwattr $C$DW$151, DW_AT_decl_line(0xe8)
    2349        .dwattr $C$DW$151, DW_AT_decl_column(0x02)
    2350        .dwendtag $C$DW$T$35
    2351
    2352        .dwattr $C$DW$T$35, DW_AT_decl_file("/usr/lib/ti/pru-software-support-package/include/am335x/p
    2353        .dwattr $C$DW$T$35, DW_AT_decl_line(0x26)
    2354        .dwattr $C$DW$T$35, DW_AT_decl_column(0x10)
    2355$C$DW$T$353     .dwtag  DW_TAG_typedef, DW_AT_name("pruCfg")
    2356        .dwattr $C$DW$T$353, DW_AT_type(*$C$DW$T$35)
    2357        .dwattr $C$DW$T$353, DW_AT_language(DW_LANG_C)
    2358        .dwattr $C$DW$T$353, DW_AT_decl_file("/usr/lib/ti/pru-software-support-package/include/am335x/
    2359        .dwattr $C$DW$T$353, DW_AT_decl_line(0xf0)
    2360        .dwattr $C$DW$T$353, DW_AT_decl_column(0x03)
    2361$C$DW$T$354     .dwtag  DW_TAG_volatile_type
    2362        .dwattr $C$DW$T$354, DW_AT_type(*$C$DW$T$353)
    2363
    2364$C$DW$T$36      .dwtag  DW_TAG_structure_type
    2365        .dwattr $C$DW$T$36, DW_AT_byte_size(0x04)
    2366$C$DW$152       .dwtag  DW_TAG_member
    2367        .dwattr $C$DW$152, DW_AT_type(*$C$DW$T$11)
    2368        .dwattr $C$DW$152, DW_AT_name("REV_MINOR")
    2369        .dwattr $C$DW$152, DW_AT_TI_symbol_name("REV_MINOR")
    2370        .dwattr $C$DW$152, DW_AT_bit_offset(0x1a), DW_AT_bit_size(0x06)
    2371        .dwattr $C$DW$152, DW_AT_data_member_location[DW_OP_plus_uconst 0x0]
    2372        .dwattr $C$DW$152, DW_AT_accessibility(DW_ACCESS_public)
    2373        .dwattr $C$DW$152, DW_AT_decl_file("/usr/lib/ti/pru-software-support-package/include/am335x/pr
    2374        .dwattr $C$DW$152, DW_AT_decl_line(0x2d)
    2375        .dwattr $C$DW$152, DW_AT_decl_column(0x0d)
    2376$C$DW$153       .dwtag  DW_TAG_member
    2377        .dwattr $C$DW$153, DW_AT_type(*$C$DW$T$11)
    2378        .dwattr $C$DW$153, DW_AT_name("REV_CUSTOM")
    2379        .dwattr $C$DW$153, DW_AT_TI_symbol_name("REV_CUSTOM")
    2380        .dwattr $C$DW$153, DW_AT_bit_offset(0x18), DW_AT_bit_size(0x02)
    2381        .dwattr $C$DW$153, DW_AT_data_member_location[DW_OP_plus_uconst 0x0]
    2382        .dwattr $C$DW$153, DW_AT_accessibility(DW_ACCESS_public)
    2383        .dwattr $C$DW$153, DW_AT_decl_file("/usr/lib/ti/pru-software-support-package/include/am335x/pr
    2384        .dwattr $C$DW$153, DW_AT_decl_line(0x2e)
    2385        .dwattr $C$DW$153, DW_AT_decl_column(0x0d)
    2386$C$DW$154       .dwtag  DW_TAG_member
    2387        .dwattr $C$DW$154, DW_AT_type(*$C$DW$T$11)
    2388        .dwattr $C$DW$154, DW_AT_name("REV_MAJOR")
    2389        .dwattr $C$DW$154, DW_AT_TI_symbol_name("REV_MAJOR")
    2390        .dwattr $C$DW$154, DW_AT_bit_offset(0x15), DW_AT_bit_size(0x03)
    2391        .dwattr $C$DW$154, DW_AT_data_member_location[DW_OP_plus_uconst 0x0]
    2392        .dwattr $C$DW$154, DW_AT_accessibility(DW_ACCESS_public)
    2393        .dwattr $C$DW$154, DW_AT_decl_file("/usr/lib/ti/pru-software-support-package/include/am335x/pr
    2394        .dwattr $C$DW$154, DW_AT_decl_line(0x2f)
    2395        .dwattr $C$DW$154, DW_AT_decl_column(0x0d)
    2396$C$DW$155       .dwtag  DW_TAG_member
    2397        .dwattr $C$DW$155, DW_AT_type(*$C$DW$T$11)
    2398        .dwattr $C$DW$155, DW_AT_name("REV_RTL")
    2399        .dwattr $C$DW$155, DW_AT_TI_symbol_name("REV_RTL")
    2400        .dwattr $C$DW$155, DW_AT_bit_offset(0x10), DW_AT_bit_size(0x05)
    2401        .dwattr $C$DW$155, DW_AT_data_member_location[DW_OP_plus_uconst 0x0]
PRU Assembler Unix v2.1.4 Sat Apr 14 23:23:22 2018

Tools Copyright (c) 2012-2015 Texas Instruments Incorporated
main1.asm                                                            PAGE   45

    2402        .dwattr $C$DW$155, DW_AT_accessibility(DW_ACCESS_public)
    2403        .dwattr $C$DW$155, DW_AT_decl_file("/usr/lib/ti/pru-software-support-package/include/am335x/pr
    2404        .dwattr $C$DW$155, DW_AT_decl_line(0x30)
    2405        .dwattr $C$DW$155, DW_AT_decl_column(0x0d)
    2406$C$DW$156       .dwtag  DW_TAG_member
    2407        .dwattr $C$DW$156, DW_AT_type(*$C$DW$T$11)
    2408        .dwattr $C$DW$156, DW_AT_name("REV_MODULE")
    2409        .dwattr $C$DW$156, DW_AT_TI_symbol_name("REV_MODULE")
    2410        .dwattr $C$DW$156, DW_AT_bit_offset(0x04), DW_AT_bit_size(0x0c)
    2411        .dwattr $C$DW$156, DW_AT_data_member_location[DW_OP_plus_uconst 0x0]
    2412        .dwattr $C$DW$156, DW_AT_accessibility(DW_ACCESS_public)
    2413        .dwattr $C$DW$156, DW_AT_decl_file("/usr/lib/ti/pru-software-support-package/include/am335x/pr
    2414        .dwattr $C$DW$156, DW_AT_decl_line(0x31)
    2415        .dwattr $C$DW$156, DW_AT_decl_column(0x0d)
    2416$C$DW$157       .dwtag  DW_TAG_member
    2417        .dwattr $C$DW$157, DW_AT_type(*$C$DW$T$11)
    2418        .dwattr $C$DW$157, DW_AT_name("rsvd28")
    2419        .dwattr $C$DW$157, DW_AT_TI_symbol_name("rsvd28")
    2420        .dwattr $C$DW$157, DW_AT_bit_offset(0x02), DW_AT_bit_size(0x02)
    2421        .dwattr $C$DW$157, DW_AT_data_member_location[DW_OP_plus_uconst 0x0]
    2422        .dwattr $C$DW$157, DW_AT_accessibility(DW_ACCESS_public)
    2423        .dwattr $C$DW$157, DW_AT_decl_file("/usr/lib/ti/pru-software-support-package/include/am335x/pr
    2424        .dwattr $C$DW$157, DW_AT_decl_line(0x32)
    2425        .dwattr $C$DW$157, DW_AT_decl_column(0x0d)
    2426$C$DW$158       .dwtag  DW_TAG_member
    2427        .dwattr $C$DW$158, DW_AT_type(*$C$DW$T$11)
    2428        .dwattr $C$DW$158, DW_AT_name("REV_SCHEME")
    2429        .dwattr $C$DW$158, DW_AT_TI_symbol_name("REV_SCHEME")
    2430        .dwattr $C$DW$158, DW_AT_bit_offset(0x00), DW_AT_bit_size(0x02)
    2431        .dwattr $C$DW$158, DW_AT_data_member_location[DW_OP_plus_uconst 0x0]
    2432        .dwattr $C$DW$158, DW_AT_accessibility(DW_ACCESS_public)
    2433        .dwattr $C$DW$158, DW_AT_decl_file("/usr/lib/ti/pru-software-support-package/include/am335x/pr
    2434        .dwattr $C$DW$158, DW_AT_decl_line(0x33)
    2435        .dwattr $C$DW$158, DW_AT_decl_column(0x0d)
    2436        .dwendtag $C$DW$T$36
    2437
    2438        .dwattr $C$DW$T$36, DW_AT_decl_file("/usr/lib/ti/pru-software-support-package/include/am335x/p
    2439        .dwattr $C$DW$T$36, DW_AT_decl_line(0x2c)
    2440        .dwattr $C$DW$T$36, DW_AT_decl_column(0x13)
    2441$C$DW$T$157     .dwtag  DW_TAG_volatile_type
    2442        .dwattr $C$DW$T$157, DW_AT_type(*$C$DW$T$36)
    2443
    2444$C$DW$T$37      .dwtag  DW_TAG_structure_type
    2445        .dwattr $C$DW$T$37, DW_AT_byte_size(0x04)
    2446$C$DW$159       .dwtag  DW_TAG_member
    2447        .dwattr $C$DW$159, DW_AT_type(*$C$DW$T$11)
    2448        .dwattr $C$DW$159, DW_AT_name("rsvd0")
    2449        .dwattr $C$DW$159, DW_AT_TI_symbol_name("rsvd0")
    2450        .dwattr $C$DW$159, DW_AT_bit_offset(0x1e), DW_AT_bit_size(0x02)
    2451        .dwattr $C$DW$159, DW_AT_data_member_location[DW_OP_plus_uconst 0x0]
    2452        .dwattr $C$DW$159, DW_AT_accessibility(DW_ACCESS_public)
    2453        .dwattr $C$DW$159, DW_AT_decl_file("/usr/lib/ti/pru-software-support-package/include/am335x/pr
    2454        .dwattr $C$DW$159, DW_AT_decl_line(0x3d)
    2455        .dwattr $C$DW$159, DW_AT_decl_column(0x0d)
    2456$C$DW$160       .dwtag  DW_TAG_member
PRU Assembler Unix v2.1.4 Sat Apr 14 23:23:22 2018

Tools Copyright (c) 2012-2015 Texas Instruments Incorporated
main1.asm                                                            PAGE   46

    2457        .dwattr $C$DW$160, DW_AT_type(*$C$DW$T$11)
    2458        .dwattr $C$DW$160, DW_AT_name("NEST_MODE")
    2459        .dwattr $C$DW$160, DW_AT_TI_symbol_name("NEST_MODE")
    2460        .dwattr $C$DW$160, DW_AT_bit_offset(0x1c), DW_AT_bit_size(0x02)
    2461        .dwattr $C$DW$160, DW_AT_data_member_location[DW_OP_plus_uconst 0x0]
    2462        .dwattr $C$DW$160, DW_AT_accessibility(DW_ACCESS_public)
    2463        .dwattr $C$DW$160, DW_AT_decl_file("/usr/lib/ti/pru-software-support-package/include/am335x/pr
    2464        .dwattr $C$DW$160, DW_AT_decl_line(0x3e)
    2465        .dwattr $C$DW$160, DW_AT_decl_column(0x0d)
    2466$C$DW$161       .dwtag  DW_TAG_member
    2467        .dwattr $C$DW$161, DW_AT_type(*$C$DW$T$11)
    2468        .dwattr $C$DW$161, DW_AT_name("rsvd4")
    2469        .dwattr $C$DW$161, DW_AT_TI_symbol_name("rsvd4")
    2470        .dwattr $C$DW$161, DW_AT_bit_offset(0x00), DW_AT_bit_size(0x1c)
    2471        .dwattr $C$DW$161, DW_AT_data_member_location[DW_OP_plus_uconst 0x0]
    2472        .dwattr $C$DW$161, DW_AT_accessibility(DW_ACCESS_public)
    2473        .dwattr $C$DW$161, DW_AT_decl_file("/usr/lib/ti/pru-software-support-package/include/am335x/pr
    2474        .dwattr $C$DW$161, DW_AT_decl_line(0x3f)
    2475        .dwattr $C$DW$161, DW_AT_decl_column(0x0d)
    2476        .dwendtag $C$DW$T$37
    2477
    2478        .dwattr $C$DW$T$37, DW_AT_decl_file("/usr/lib/ti/pru-software-support-package/include/am335x/p
    2479        .dwattr $C$DW$T$37, DW_AT_decl_line(0x3c)
    2480        .dwattr $C$DW$T$37, DW_AT_decl_column(0x13)
    2481$C$DW$T$159     .dwtag  DW_TAG_volatile_type
    2482        .dwattr $C$DW$T$159, DW_AT_type(*$C$DW$T$37)
    2483
    2484$C$DW$T$38      .dwtag  DW_TAG_structure_type
    2485        .dwattr $C$DW$T$38, DW_AT_byte_size(0x04)
    2486$C$DW$162       .dwtag  DW_TAG_member
    2487        .dwattr $C$DW$162, DW_AT_type(*$C$DW$T$11)
    2488        .dwattr $C$DW$162, DW_AT_name("EN_HINT_ANY")
    2489        .dwattr $C$DW$162, DW_AT_TI_symbol_name("EN_HINT_ANY")
    2490        .dwattr $C$DW$162, DW_AT_bit_offset(0x1f), DW_AT_bit_size(0x01)
    2491        .dwattr $C$DW$162, DW_AT_data_member_location[DW_OP_plus_uconst 0x0]
    2492        .dwattr $C$DW$162, DW_AT_accessibility(DW_ACCESS_public)
    2493        .dwattr $C$DW$162, DW_AT_decl_file("/usr/lib/ti/pru-software-support-package/include/am335x/pr
    2494        .dwattr $C$DW$162, DW_AT_decl_line(0x4c)
    2495        .dwattr $C$DW$162, DW_AT_decl_column(0x0d)
    2496$C$DW$163       .dwtag  DW_TAG_member
    2497        .dwattr $C$DW$163, DW_AT_type(*$C$DW$T$11)
    2498        .dwattr $C$DW$163, DW_AT_name("rsvd1")
    2499        .dwattr $C$DW$163, DW_AT_TI_symbol_name("rsvd1")
    2500        .dwattr $C$DW$163, DW_AT_bit_offset(0x00), DW_AT_bit_size(0x1f)
    2501        .dwattr $C$DW$163, DW_AT_data_member_location[DW_OP_plus_uconst 0x0]
    2502        .dwattr $C$DW$163, DW_AT_accessibility(DW_ACCESS_public)
    2503        .dwattr $C$DW$163, DW_AT_decl_file("/usr/lib/ti/pru-software-support-package/include/am335x/pr
    2504        .dwattr $C$DW$163, DW_AT_decl_line(0x4d)
    2505        .dwattr $C$DW$163, DW_AT_decl_column(0x0d)
    2506        .dwendtag $C$DW$T$38
    2507
    2508        .dwattr $C$DW$T$38, DW_AT_decl_file("/usr/lib/ti/pru-software-support-package/include/am335x/p
    2509        .dwattr $C$DW$T$38, DW_AT_decl_line(0x4b)
    2510        .dwattr $C$DW$T$38, DW_AT_decl_column(0x13)
    2511$C$DW$T$161     .dwtag  DW_TAG_volatile_type
PRU Assembler Unix v2.1.4 Sat Apr 14 23:23:22 2018

Tools Copyright (c) 2012-2015 Texas Instruments Incorporated
main1.asm                                                            PAGE   47

    2512        .dwattr $C$DW$T$161, DW_AT_type(*$C$DW$T$38)
    2513
    2514$C$DW$T$39      .dwtag  DW_TAG_structure_type
    2515        .dwattr $C$DW$T$39, DW_AT_byte_size(0x04)
    2516$C$DW$164       .dwtag  DW_TAG_member
    2517        .dwattr $C$DW$164, DW_AT_type(*$C$DW$T$11)
    2518        .dwattr $C$DW$164, DW_AT_name("GLB_NEST_LEVEL")
    2519        .dwattr $C$DW$164, DW_AT_TI_symbol_name("GLB_NEST_LEVEL")
    2520        .dwattr $C$DW$164, DW_AT_bit_offset(0x17), DW_AT_bit_size(0x09)
    2521        .dwattr $C$DW$164, DW_AT_data_member_location[DW_OP_plus_uconst 0x0]
    2522        .dwattr $C$DW$164, DW_AT_accessibility(DW_ACCESS_public)
    2523        .dwattr $C$DW$164, DW_AT_decl_file("/usr/lib/ti/pru-software-support-package/include/am335x/pr
    2524        .dwattr $C$DW$164, DW_AT_decl_line(0x5a)
    2525        .dwattr $C$DW$164, DW_AT_decl_column(0x0d)
    2526$C$DW$165       .dwtag  DW_TAG_member
    2527        .dwattr $C$DW$165, DW_AT_type(*$C$DW$T$11)
    2528        .dwattr $C$DW$165, DW_AT_name("rsvd9")
    2529        .dwattr $C$DW$165, DW_AT_TI_symbol_name("rsvd9")
    2530        .dwattr $C$DW$165, DW_AT_bit_offset(0x01), DW_AT_bit_size(0x16)
    2531        .dwattr $C$DW$165, DW_AT_data_member_location[DW_OP_plus_uconst 0x0]
    2532        .dwattr $C$DW$165, DW_AT_accessibility(DW_ACCESS_public)
    2533        .dwattr $C$DW$165, DW_AT_decl_file("/usr/lib/ti/pru-software-support-package/include/am335x/pr
    2534        .dwattr $C$DW$165, DW_AT_decl_line(0x5b)
    2535        .dwattr $C$DW$165, DW_AT_decl_column(0x0d)
    2536$C$DW$166       .dwtag  DW_TAG_member
    2537        .dwattr $C$DW$166, DW_AT_type(*$C$DW$T$11)
    2538        .dwattr $C$DW$166, DW_AT_name("AUTO_OVERRIDE")
    2539        .dwattr $C$DW$166, DW_AT_TI_symbol_name("AUTO_OVERRIDE")
    2540        .dwattr $C$DW$166, DW_AT_bit_offset(0x00), DW_AT_bit_size(0x01)
    2541        .dwattr $C$DW$166, DW_AT_data_member_location[DW_OP_plus_uconst 0x0]
    2542        .dwattr $C$DW$166, DW_AT_accessibility(DW_ACCESS_public)
    2543        .dwattr $C$DW$166, DW_AT_decl_file("/usr/lib/ti/pru-software-support-package/include/am335x/pr
    2544        .dwattr $C$DW$166, DW_AT_decl_line(0x5c)
    2545        .dwattr $C$DW$166, DW_AT_decl_column(0x0d)
    2546        .dwendtag $C$DW$T$39
    2547
    2548        .dwattr $C$DW$T$39, DW_AT_decl_file("/usr/lib/ti/pru-software-support-package/include/am335x/p
    2549        .dwattr $C$DW$T$39, DW_AT_decl_line(0x59)
    2550        .dwattr $C$DW$T$39, DW_AT_decl_column(0x13)
    2551$C$DW$T$163     .dwtag  DW_TAG_volatile_type
    2552        .dwattr $C$DW$T$163, DW_AT_type(*$C$DW$T$39)
    2553
    2554$C$DW$T$40      .dwtag  DW_TAG_structure_type
    2555        .dwattr $C$DW$T$40, DW_AT_byte_size(0x04)
    2556$C$DW$167       .dwtag  DW_TAG_member
    2557        .dwattr $C$DW$167, DW_AT_type(*$C$DW$T$11)
    2558        .dwattr $C$DW$167, DW_AT_name("STS_SET_IDX")
    2559        .dwattr $C$DW$167, DW_AT_TI_symbol_name("STS_SET_IDX")
    2560        .dwattr $C$DW$167, DW_AT_bit_offset(0x16), DW_AT_bit_size(0x0a)
    2561        .dwattr $C$DW$167, DW_AT_data_member_location[DW_OP_plus_uconst 0x0]
    2562        .dwattr $C$DW$167, DW_AT_accessibility(DW_ACCESS_public)
    2563        .dwattr $C$DW$167, DW_AT_decl_file("/usr/lib/ti/pru-software-support-package/include/am335x/pr
    2564        .dwattr $C$DW$167, DW_AT_decl_line(0x66)
    2565        .dwattr $C$DW$167, DW_AT_decl_column(0x0d)
    2566$C$DW$168       .dwtag  DW_TAG_member
PRU Assembler Unix v2.1.4 Sat Apr 14 23:23:22 2018

Tools Copyright (c) 2012-2015 Texas Instruments Incorporated
main1.asm                                                            PAGE   48

    2567        .dwattr $C$DW$168, DW_AT_type(*$C$DW$T$11)
    2568        .dwattr $C$DW$168, DW_AT_name("rsvd10")
    2569        .dwattr $C$DW$168, DW_AT_TI_symbol_name("rsvd10")
    2570        .dwattr $C$DW$168, DW_AT_bit_offset(0x00), DW_AT_bit_size(0x16)
    2571        .dwattr $C$DW$168, DW_AT_data_member_location[DW_OP_plus_uconst 0x0]
    2572        .dwattr $C$DW$168, DW_AT_accessibility(DW_ACCESS_public)
    2573        .dwattr $C$DW$168, DW_AT_decl_file("/usr/lib/ti/pru-software-support-package/include/am335x/pr
    2574        .dwattr $C$DW$168, DW_AT_decl_line(0x67)
    2575        .dwattr $C$DW$168, DW_AT_decl_column(0x0d)
    2576        .dwendtag $C$DW$T$40
    2577
    2578        .dwattr $C$DW$T$40, DW_AT_decl_file("/usr/lib/ti/pru-software-support-package/include/am335x/p
    2579        .dwattr $C$DW$T$40, DW_AT_decl_line(0x65)
    2580        .dwattr $C$DW$T$40, DW_AT_decl_column(0x13)
    2581$C$DW$T$165     .dwtag  DW_TAG_volatile_type
    2582        .dwattr $C$DW$T$165, DW_AT_type(*$C$DW$T$40)
    2583
    2584$C$DW$T$41      .dwtag  DW_TAG_structure_type
    2585        .dwattr $C$DW$T$41, DW_AT_byte_size(0x04)
    2586$C$DW$169       .dwtag  DW_TAG_member
    2587        .dwattr $C$DW$169, DW_AT_type(*$C$DW$T$11)
    2588        .dwattr $C$DW$169, DW_AT_name("STS_CLR_IDX")
    2589        .dwattr $C$DW$169, DW_AT_TI_symbol_name("STS_CLR_IDX")
    2590        .dwattr $C$DW$169, DW_AT_bit_offset(0x16), DW_AT_bit_size(0x0a)
    2591        .dwattr $C$DW$169, DW_AT_data_member_location[DW_OP_plus_uconst 0x0]
    2592        .dwattr $C$DW$169, DW_AT_accessibility(DW_ACCESS_public)
    2593        .dwattr $C$DW$169, DW_AT_decl_file("/usr/lib/ti/pru-software-support-package/include/am335x/pr
    2594        .dwattr $C$DW$169, DW_AT_decl_line(0x71)
    2595        .dwattr $C$DW$169, DW_AT_decl_column(0x0d)
    2596$C$DW$170       .dwtag  DW_TAG_member
    2597        .dwattr $C$DW$170, DW_AT_type(*$C$DW$T$11)
    2598        .dwattr $C$DW$170, DW_AT_name("rsvd10")
    2599        .dwattr $C$DW$170, DW_AT_TI_symbol_name("rsvd10")
    2600        .dwattr $C$DW$170, DW_AT_bit_offset(0x00), DW_AT_bit_size(0x16)
    2601        .dwattr $C$DW$170, DW_AT_data_member_location[DW_OP_plus_uconst 0x0]
    2602        .dwattr $C$DW$170, DW_AT_accessibility(DW_ACCESS_public)
    2603        .dwattr $C$DW$170, DW_AT_decl_file("/usr/lib/ti/pru-software-support-package/include/am335x/pr
    2604        .dwattr $C$DW$170, DW_AT_decl_line(0x72)
    2605        .dwattr $C$DW$170, DW_AT_decl_column(0x0d)
    2606        .dwendtag $C$DW$T$41
    2607
    2608        .dwattr $C$DW$T$41, DW_AT_decl_file("/usr/lib/ti/pru-software-support-package/include/am335x/p
    2609        .dwattr $C$DW$T$41, DW_AT_decl_line(0x70)
    2610        .dwattr $C$DW$T$41, DW_AT_decl_column(0x13)
    2611$C$DW$T$167     .dwtag  DW_TAG_volatile_type
    2612        .dwattr $C$DW$T$167, DW_AT_type(*$C$DW$T$41)
    2613
    2614$C$DW$T$42      .dwtag  DW_TAG_structure_type
    2615        .dwattr $C$DW$T$42, DW_AT_byte_size(0x04)
    2616$C$DW$171       .dwtag  DW_TAG_member
    2617        .dwattr $C$DW$171, DW_AT_type(*$C$DW$T$11)
    2618        .dwattr $C$DW$171, DW_AT_name("EN_SET_IDX")
    2619        .dwattr $C$DW$171, DW_AT_TI_symbol_name("EN_SET_IDX")
    2620        .dwattr $C$DW$171, DW_AT_bit_offset(0x16), DW_AT_bit_size(0x0a)
    2621        .dwattr $C$DW$171, DW_AT_data_member_location[DW_OP_plus_uconst 0x0]
PRU Assembler Unix v2.1.4 Sat Apr 14 23:23:22 2018

Tools Copyright (c) 2012-2015 Texas Instruments Incorporated
main1.asm                                                            PAGE   49

    2622        .dwattr $C$DW$171, DW_AT_accessibility(DW_ACCESS_public)
    2623        .dwattr $C$DW$171, DW_AT_decl_file("/usr/lib/ti/pru-software-support-package/include/am335x/pr
    2624        .dwattr $C$DW$171, DW_AT_decl_line(0x7c)
    2625        .dwattr $C$DW$171, DW_AT_decl_column(0x0d)
    2626$C$DW$172       .dwtag  DW_TAG_member
    2627        .dwattr $C$DW$172, DW_AT_type(*$C$DW$T$11)
    2628        .dwattr $C$DW$172, DW_AT_name("rsvd10")
    2629        .dwattr $C$DW$172, DW_AT_TI_symbol_name("rsvd10")
    2630        .dwattr $C$DW$172, DW_AT_bit_offset(0x00), DW_AT_bit_size(0x16)
    2631        .dwattr $C$DW$172, DW_AT_data_member_location[DW_OP_plus_uconst 0x0]
    2632        .dwattr $C$DW$172, DW_AT_accessibility(DW_ACCESS_public)
    2633        .dwattr $C$DW$172, DW_AT_decl_file("/usr/lib/ti/pru-software-support-package/include/am335x/pr
    2634        .dwattr $C$DW$172, DW_AT_decl_line(0x7d)
    2635        .dwattr $C$DW$172, DW_AT_decl_column(0x0d)
    2636        .dwendtag $C$DW$T$42
    2637
    2638        .dwattr $C$DW$T$42, DW_AT_decl_file("/usr/lib/ti/pru-software-support-package/include/am335x/p
    2639        .dwattr $C$DW$T$42, DW_AT_decl_line(0x7b)
    2640        .dwattr $C$DW$T$42, DW_AT_decl_column(0x13)
    2641$C$DW$T$169     .dwtag  DW_TAG_volatile_type
    2642        .dwattr $C$DW$T$169, DW_AT_type(*$C$DW$T$42)
    2643
    2644$C$DW$T$43      .dwtag  DW_TAG_structure_type
    2645        .dwattr $C$DW$T$43, DW_AT_byte_size(0x04)
    2646$C$DW$173       .dwtag  DW_TAG_member
    2647        .dwattr $C$DW$173, DW_AT_type(*$C$DW$T$11)
    2648        .dwattr $C$DW$173, DW_AT_name("EN_CLR_IDX")
    2649        .dwattr $C$DW$173, DW_AT_TI_symbol_name("EN_CLR_IDX")
    2650        .dwattr $C$DW$173, DW_AT_bit_offset(0x16), DW_AT_bit_size(0x0a)
    2651        .dwattr $C$DW$173, DW_AT_data_member_location[DW_OP_plus_uconst 0x0]
    2652        .dwattr $C$DW$173, DW_AT_accessibility(DW_ACCESS_public)
    2653        .dwattr $C$DW$173, DW_AT_decl_file("/usr/lib/ti/pru-software-support-package/include/am335x/pr
    2654        .dwattr $C$DW$173, DW_AT_decl_line(0x87)
    2655        .dwattr $C$DW$173, DW_AT_decl_column(0x0d)
    2656$C$DW$174       .dwtag  DW_TAG_member
    2657        .dwattr $C$DW$174, DW_AT_type(*$C$DW$T$11)
    2658        .dwattr $C$DW$174, DW_AT_name("rsvd10")
    2659        .dwattr $C$DW$174, DW_AT_TI_symbol_name("rsvd10")
    2660        .dwattr $C$DW$174, DW_AT_bit_offset(0x00), DW_AT_bit_size(0x16)
    2661        .dwattr $C$DW$174, DW_AT_data_member_location[DW_OP_plus_uconst 0x0]
    2662        .dwattr $C$DW$174, DW_AT_accessibility(DW_ACCESS_public)
    2663        .dwattr $C$DW$174, DW_AT_decl_file("/usr/lib/ti/pru-software-support-package/include/am335x/pr
    2664        .dwattr $C$DW$174, DW_AT_decl_line(0x88)
    2665        .dwattr $C$DW$174, DW_AT_decl_column(0x0d)
    2666        .dwendtag $C$DW$T$43
    2667
    2668        .dwattr $C$DW$T$43, DW_AT_decl_file("/usr/lib/ti/pru-software-support-package/include/am335x/p
    2669        .dwattr $C$DW$T$43, DW_AT_decl_line(0x86)
    2670        .dwattr $C$DW$T$43, DW_AT_decl_column(0x13)
    2671$C$DW$T$171     .dwtag  DW_TAG_volatile_type
    2672        .dwattr $C$DW$T$171, DW_AT_type(*$C$DW$T$43)
    2673
    2674$C$DW$T$44      .dwtag  DW_TAG_structure_type
    2675        .dwattr $C$DW$T$44, DW_AT_byte_size(0x04)
    2676$C$DW$175       .dwtag  DW_TAG_member
PRU Assembler Unix v2.1.4 Sat Apr 14 23:23:22 2018

Tools Copyright (c) 2012-2015 Texas Instruments Incorporated
main1.asm                                                            PAGE   50

    2677        .dwattr $C$DW$175, DW_AT_type(*$C$DW$T$11)
    2678        .dwattr $C$DW$175, DW_AT_name("HINT_EN_SET_IDX")
    2679        .dwattr $C$DW$175, DW_AT_TI_symbol_name("HINT_EN_SET_IDX")
    2680        .dwattr $C$DW$175, DW_AT_bit_offset(0x1c), DW_AT_bit_size(0x04)
    2681        .dwattr $C$DW$175, DW_AT_data_member_location[DW_OP_plus_uconst 0x0]
    2682        .dwattr $C$DW$175, DW_AT_accessibility(DW_ACCESS_public)
    2683        .dwattr $C$DW$175, DW_AT_decl_file("/usr/lib/ti/pru-software-support-package/include/am335x/pr
    2684        .dwattr $C$DW$175, DW_AT_decl_line(0x95)
    2685        .dwattr $C$DW$175, DW_AT_decl_column(0x0d)
    2686$C$DW$176       .dwtag  DW_TAG_member
    2687        .dwattr $C$DW$176, DW_AT_type(*$C$DW$T$11)
    2688        .dwattr $C$DW$176, DW_AT_name("rsvd4")
    2689        .dwattr $C$DW$176, DW_AT_TI_symbol_name("rsvd4")
    2690        .dwattr $C$DW$176, DW_AT_bit_offset(0x00), DW_AT_bit_size(0x1c)
    2691        .dwattr $C$DW$176, DW_AT_data_member_location[DW_OP_plus_uconst 0x0]
    2692        .dwattr $C$DW$176, DW_AT_accessibility(DW_ACCESS_public)
    2693        .dwattr $C$DW$176, DW_AT_decl_file("/usr/lib/ti/pru-software-support-package/include/am335x/pr
    2694        .dwattr $C$DW$176, DW_AT_decl_line(0x96)
    2695        .dwattr $C$DW$176, DW_AT_decl_column(0x0d)
    2696        .dwendtag $C$DW$T$44
    2697
    2698        .dwattr $C$DW$T$44, DW_AT_decl_file("/usr/lib/ti/pru-software-support-package/include/am335x/p
    2699        .dwattr $C$DW$T$44, DW_AT_decl_line(0x94)
    2700        .dwattr $C$DW$T$44, DW_AT_decl_column(0x13)
    2701$C$DW$T$173     .dwtag  DW_TAG_volatile_type
    2702        .dwattr $C$DW$T$173, DW_AT_type(*$C$DW$T$44)
    2703
    2704$C$DW$T$45      .dwtag  DW_TAG_structure_type
    2705        .dwattr $C$DW$T$45, DW_AT_byte_size(0x04)
    2706$C$DW$177       .dwtag  DW_TAG_member
    2707        .dwattr $C$DW$177, DW_AT_type(*$C$DW$T$11)
    2708        .dwattr $C$DW$177, DW_AT_name("HINT_EN_CLR_IDX")
    2709        .dwattr $C$DW$177, DW_AT_TI_symbol_name("HINT_EN_CLR_IDX")
    2710        .dwattr $C$DW$177, DW_AT_bit_offset(0x1c), DW_AT_bit_size(0x04)
    2711        .dwattr $C$DW$177, DW_AT_data_member_location[DW_OP_plus_uconst 0x0]
    2712        .dwattr $C$DW$177, DW_AT_accessibility(DW_ACCESS_public)
    2713        .dwattr $C$DW$177, DW_AT_decl_file("/usr/lib/ti/pru-software-support-package/include/am335x/pr
    2714        .dwattr $C$DW$177, DW_AT_decl_line(0xa0)
    2715        .dwattr $C$DW$177, DW_AT_decl_column(0x0d)
    2716$C$DW$178       .dwtag  DW_TAG_member
    2717        .dwattr $C$DW$178, DW_AT_type(*$C$DW$T$11)
    2718        .dwattr $C$DW$178, DW_AT_name("rsvd4")
    2719        .dwattr $C$DW$178, DW_AT_TI_symbol_name("rsvd4")
    2720        .dwattr $C$DW$178, DW_AT_bit_offset(0x00), DW_AT_bit_size(0x1c)
    2721        .dwattr $C$DW$178, DW_AT_data_member_location[DW_OP_plus_uconst 0x0]
    2722        .dwattr $C$DW$178, DW_AT_accessibility(DW_ACCESS_public)
    2723        .dwattr $C$DW$178, DW_AT_decl_file("/usr/lib/ti/pru-software-support-package/include/am335x/pr
    2724        .dwattr $C$DW$178, DW_AT_decl_line(0xa1)
    2725        .dwattr $C$DW$178, DW_AT_decl_column(0x0d)
    2726        .dwendtag $C$DW$T$45
    2727
    2728        .dwattr $C$DW$T$45, DW_AT_decl_file("/usr/lib/ti/pru-software-support-package/include/am335x/p
    2729        .dwattr $C$DW$T$45, DW_AT_decl_line(0x9f)
    2730        .dwattr $C$DW$T$45, DW_AT_decl_column(0x13)
    2731$C$DW$T$175     .dwtag  DW_TAG_volatile_type
PRU Assembler Unix v2.1.4 Sat Apr 14 23:23:22 2018

Tools Copyright (c) 2012-2015 Texas Instruments Incorporated
main1.asm                                                            PAGE   51

    2732        .dwattr $C$DW$T$175, DW_AT_type(*$C$DW$T$45)
    2733
    2734$C$DW$T$46      .dwtag  DW_TAG_structure_type
    2735        .dwattr $C$DW$T$46, DW_AT_byte_size(0x04)
    2736$C$DW$179       .dwtag  DW_TAG_member
    2737        .dwattr $C$DW$179, DW_AT_type(*$C$DW$T$11)
    2738        .dwattr $C$DW$179, DW_AT_name("GLB_PRI_INTR")
    2739        .dwattr $C$DW$179, DW_AT_TI_symbol_name("GLB_PRI_INTR")
    2740        .dwattr $C$DW$179, DW_AT_bit_offset(0x16), DW_AT_bit_size(0x0a)
    2741        .dwattr $C$DW$179, DW_AT_data_member_location[DW_OP_plus_uconst 0x0]
    2742        .dwattr $C$DW$179, DW_AT_accessibility(DW_ACCESS_public)
    2743        .dwattr $C$DW$179, DW_AT_decl_file("/usr/lib/ti/pru-software-support-package/include/am335x/pr
    2744        .dwattr $C$DW$179, DW_AT_decl_line(0xae)
    2745        .dwattr $C$DW$179, DW_AT_decl_column(0x0d)
    2746$C$DW$180       .dwtag  DW_TAG_member
    2747        .dwattr $C$DW$180, DW_AT_type(*$C$DW$T$11)
    2748        .dwattr $C$DW$180, DW_AT_name("rsvd10")
    2749        .dwattr $C$DW$180, DW_AT_TI_symbol_name("rsvd10")
    2750        .dwattr $C$DW$180, DW_AT_bit_offset(0x01), DW_AT_bit_size(0x15)
    2751        .dwattr $C$DW$180, DW_AT_data_member_location[DW_OP_plus_uconst 0x0]
    2752        .dwattr $C$DW$180, DW_AT_accessibility(DW_ACCESS_public)
    2753        .dwattr $C$DW$180, DW_AT_decl_file("/usr/lib/ti/pru-software-support-package/include/am335x/pr
    2754        .dwattr $C$DW$180, DW_AT_decl_line(0xaf)
    2755        .dwattr $C$DW$180, DW_AT_decl_column(0x0d)
    2756$C$DW$181       .dwtag  DW_TAG_member
    2757        .dwattr $C$DW$181, DW_AT_type(*$C$DW$T$11)
    2758        .dwattr $C$DW$181, DW_AT_name("GLB_NONE")
    2759        .dwattr $C$DW$181, DW_AT_TI_symbol_name("GLB_NONE")
    2760        .dwattr $C$DW$181, DW_AT_bit_offset(0x00), DW_AT_bit_size(0x01)
    2761        .dwattr $C$DW$181, DW_AT_data_member_location[DW_OP_plus_uconst 0x0]
    2762        .dwattr $C$DW$181, DW_AT_accessibility(DW_ACCESS_public)
    2763        .dwattr $C$DW$181, DW_AT_decl_file("/usr/lib/ti/pru-software-support-package/include/am335x/pr
    2764        .dwattr $C$DW$181, DW_AT_decl_line(0xb0)
    2765        .dwattr $C$DW$181, DW_AT_decl_column(0x0d)
    2766        .dwendtag $C$DW$T$46
    2767
    2768        .dwattr $C$DW$T$46, DW_AT_decl_file("/usr/lib/ti/pru-software-support-package/include/am335x/p
    2769        .dwattr $C$DW$T$46, DW_AT_decl_line(0xad)
    2770        .dwattr $C$DW$T$46, DW_AT_decl_column(0x13)
    2771$C$DW$T$177     .dwtag  DW_TAG_volatile_type
    2772        .dwattr $C$DW$T$177, DW_AT_type(*$C$DW$T$46)
    2773
    2774$C$DW$T$47      .dwtag  DW_TAG_structure_type
    2775        .dwattr $C$DW$T$47, DW_AT_byte_size(0x04)
    2776$C$DW$182       .dwtag  DW_TAG_member
    2777        .dwattr $C$DW$182, DW_AT_type(*$C$DW$T$11)
    2778        .dwattr $C$DW$182, DW_AT_name("RAW_STS_31_0")
    2779        .dwattr $C$DW$182, DW_AT_TI_symbol_name("RAW_STS_31_0")
    2780        .dwattr $C$DW$182, DW_AT_bit_offset(0x00), DW_AT_bit_size(0x20)
    2781        .dwattr $C$DW$182, DW_AT_data_member_location[DW_OP_plus_uconst 0x0]
    2782        .dwattr $C$DW$182, DW_AT_accessibility(DW_ACCESS_public)
    2783        .dwattr $C$DW$182, DW_AT_decl_file("/usr/lib/ti/pru-software-support-package/include/am335x/pr
    2784        .dwattr $C$DW$182, DW_AT_decl_line(0xbd)
    2785        .dwattr $C$DW$182, DW_AT_decl_column(0x0d)
    2786        .dwendtag $C$DW$T$47
PRU Assembler Unix v2.1.4 Sat Apr 14 23:23:22 2018

Tools Copyright (c) 2012-2015 Texas Instruments Incorporated
main1.asm                                                            PAGE   52

    2787
    2788        .dwattr $C$DW$T$47, DW_AT_decl_file("/usr/lib/ti/pru-software-support-package/include/am335x/p
    2789        .dwattr $C$DW$T$47, DW_AT_decl_line(0xbc)
    2790        .dwattr $C$DW$T$47, DW_AT_decl_column(0x13)
    2791$C$DW$T$179     .dwtag  DW_TAG_volatile_type
    2792        .dwattr $C$DW$T$179, DW_AT_type(*$C$DW$T$47)
    2793
    2794$C$DW$T$48      .dwtag  DW_TAG_structure_type
    2795        .dwattr $C$DW$T$48, DW_AT_byte_size(0x04)
    2796$C$DW$183       .dwtag  DW_TAG_member
    2797        .dwattr $C$DW$183, DW_AT_type(*$C$DW$T$11)
    2798        .dwattr $C$DW$183, DW_AT_name("RAW_STS_63_32")
    2799        .dwattr $C$DW$183, DW_AT_TI_symbol_name("RAW_STS_63_32")
    2800        .dwattr $C$DW$183, DW_AT_bit_offset(0x00), DW_AT_bit_size(0x20)
    2801        .dwattr $C$DW$183, DW_AT_data_member_location[DW_OP_plus_uconst 0x0]
    2802        .dwattr $C$DW$183, DW_AT_accessibility(DW_ACCESS_public)
    2803        .dwattr $C$DW$183, DW_AT_decl_file("/usr/lib/ti/pru-software-support-package/include/am335x/pr
    2804        .dwattr $C$DW$183, DW_AT_decl_line(0xc7)
    2805        .dwattr $C$DW$183, DW_AT_decl_column(0x0d)
    2806        .dwendtag $C$DW$T$48
    2807
    2808        .dwattr $C$DW$T$48, DW_AT_decl_file("/usr/lib/ti/pru-software-support-package/include/am335x/p
    2809        .dwattr $C$DW$T$48, DW_AT_decl_line(0xc6)
    2810        .dwattr $C$DW$T$48, DW_AT_decl_column(0x13)
    2811$C$DW$T$181     .dwtag  DW_TAG_volatile_type
    2812        .dwattr $C$DW$T$181, DW_AT_type(*$C$DW$T$48)
    2813
    2814$C$DW$T$49      .dwtag  DW_TAG_structure_type
    2815        .dwattr $C$DW$T$49, DW_AT_byte_size(0x04)
    2816$C$DW$184       .dwtag  DW_TAG_member
    2817        .dwattr $C$DW$184, DW_AT_type(*$C$DW$T$11)
    2818        .dwattr $C$DW$184, DW_AT_name("ENA_STS_31_0")
    2819        .dwattr $C$DW$184, DW_AT_TI_symbol_name("ENA_STS_31_0")
    2820        .dwattr $C$DW$184, DW_AT_bit_offset(0x00), DW_AT_bit_size(0x20)
    2821        .dwattr $C$DW$184, DW_AT_data_member_location[DW_OP_plus_uconst 0x0]
    2822        .dwattr $C$DW$184, DW_AT_accessibility(DW_ACCESS_public)
    2823        .dwattr $C$DW$184, DW_AT_decl_file("/usr/lib/ti/pru-software-support-package/include/am335x/pr
    2824        .dwattr $C$DW$184, DW_AT_decl_line(0xd4)
    2825        .dwattr $C$DW$184, DW_AT_decl_column(0x0d)
    2826        .dwendtag $C$DW$T$49
    2827
    2828        .dwattr $C$DW$T$49, DW_AT_decl_file("/usr/lib/ti/pru-software-support-package/include/am335x/p
    2829        .dwattr $C$DW$T$49, DW_AT_decl_line(0xd3)
    2830        .dwattr $C$DW$T$49, DW_AT_decl_column(0x13)
    2831$C$DW$T$183     .dwtag  DW_TAG_volatile_type
    2832        .dwattr $C$DW$T$183, DW_AT_type(*$C$DW$T$49)
    2833
    2834$C$DW$T$50      .dwtag  DW_TAG_structure_type
    2835        .dwattr $C$DW$T$50, DW_AT_byte_size(0x04)
    2836$C$DW$185       .dwtag  DW_TAG_member
    2837        .dwattr $C$DW$185, DW_AT_type(*$C$DW$T$11)
    2838        .dwattr $C$DW$185, DW_AT_name("ENA_STS_63_32")
    2839        .dwattr $C$DW$185, DW_AT_TI_symbol_name("ENA_STS_63_32")
    2840        .dwattr $C$DW$185, DW_AT_bit_offset(0x00), DW_AT_bit_size(0x20)
    2841        .dwattr $C$DW$185, DW_AT_data_member_location[DW_OP_plus_uconst 0x0]
PRU Assembler Unix v2.1.4 Sat Apr 14 23:23:22 2018

Tools Copyright (c) 2012-2015 Texas Instruments Incorporated
main1.asm                                                            PAGE   53

    2842        .dwattr $C$DW$185, DW_AT_accessibility(DW_ACCESS_public)
    2843        .dwattr $C$DW$185, DW_AT_decl_file("/usr/lib/ti/pru-software-support-package/include/am335x/pr
    2844        .dwattr $C$DW$185, DW_AT_decl_line(0xde)
    2845        .dwattr $C$DW$185, DW_AT_decl_column(0x0d)
    2846        .dwendtag $C$DW$T$50
    2847
    2848        .dwattr $C$DW$T$50, DW_AT_decl_file("/usr/lib/ti/pru-software-support-package/include/am335x/p
    2849        .dwattr $C$DW$T$50, DW_AT_decl_line(0xdd)
    2850        .dwattr $C$DW$T$50, DW_AT_decl_column(0x13)
    2851$C$DW$T$185     .dwtag  DW_TAG_volatile_type
    2852        .dwattr $C$DW$T$185, DW_AT_type(*$C$DW$T$50)
    2853
    2854$C$DW$T$51      .dwtag  DW_TAG_structure_type
    2855        .dwattr $C$DW$T$51, DW_AT_byte_size(0x04)
    2856$C$DW$186       .dwtag  DW_TAG_member
    2857        .dwattr $C$DW$186, DW_AT_type(*$C$DW$T$11)
    2858        .dwattr $C$DW$186, DW_AT_name("EN_SET_31_0")
    2859        .dwattr $C$DW$186, DW_AT_TI_symbol_name("EN_SET_31_0")
    2860        .dwattr $C$DW$186, DW_AT_bit_offset(0x00), DW_AT_bit_size(0x20)
    2861        .dwattr $C$DW$186, DW_AT_data_member_location[DW_OP_plus_uconst 0x0]
    2862        .dwattr $C$DW$186, DW_AT_accessibility(DW_ACCESS_public)
    2863        .dwattr $C$DW$186, DW_AT_decl_file("/usr/lib/ti/pru-software-support-package/include/am335x/pr
    2864        .dwattr $C$DW$186, DW_AT_decl_line(0xeb)
    2865        .dwattr $C$DW$186, DW_AT_decl_column(0x0d)
    2866        .dwendtag $C$DW$T$51
    2867
    2868        .dwattr $C$DW$T$51, DW_AT_decl_file("/usr/lib/ti/pru-software-support-package/include/am335x/p
    2869        .dwattr $C$DW$T$51, DW_AT_decl_line(0xea)
    2870        .dwattr $C$DW$T$51, DW_AT_decl_column(0x13)
    2871$C$DW$T$187     .dwtag  DW_TAG_volatile_type
    2872        .dwattr $C$DW$T$187, DW_AT_type(*$C$DW$T$51)
    2873
    2874$C$DW$T$52      .dwtag  DW_TAG_structure_type
    2875        .dwattr $C$DW$T$52, DW_AT_byte_size(0x04)
    2876$C$DW$187       .dwtag  DW_TAG_member
    2877        .dwattr $C$DW$187, DW_AT_type(*$C$DW$T$11)
    2878        .dwattr $C$DW$187, DW_AT_name("EN_SET_63_32")
    2879        .dwattr $C$DW$187, DW_AT_TI_symbol_name("EN_SET_63_32")
    2880        .dwattr $C$DW$187, DW_AT_bit_offset(0x00), DW_AT_bit_size(0x20)
    2881        .dwattr $C$DW$187, DW_AT_data_member_location[DW_OP_plus_uconst 0x0]
    2882        .dwattr $C$DW$187, DW_AT_accessibility(DW_ACCESS_public)
    2883        .dwattr $C$DW$187, DW_AT_decl_file("/usr/lib/ti/pru-software-support-package/include/am335x/pr
    2884        .dwattr $C$DW$187, DW_AT_decl_line(0xf5)
    2885        .dwattr $C$DW$187, DW_AT_decl_column(0x0d)
    2886        .dwendtag $C$DW$T$52
    2887
    2888        .dwattr $C$DW$T$52, DW_AT_decl_file("/usr/lib/ti/pru-software-support-package/include/am335x/p
    2889        .dwattr $C$DW$T$52, DW_AT_decl_line(0xf4)
    2890        .dwattr $C$DW$T$52, DW_AT_decl_column(0x13)
    2891$C$DW$T$189     .dwtag  DW_TAG_volatile_type
    2892        .dwattr $C$DW$T$189, DW_AT_type(*$C$DW$T$52)
    2893
    2894$C$DW$T$53      .dwtag  DW_TAG_structure_type
    2895        .dwattr $C$DW$T$53, DW_AT_byte_size(0x04)
    2896$C$DW$188       .dwtag  DW_TAG_member
PRU Assembler Unix v2.1.4 Sat Apr 14 23:23:22 2018

Tools Copyright (c) 2012-2015 Texas Instruments Incorporated
main1.asm                                                            PAGE   54

    2897        .dwattr $C$DW$188, DW_AT_type(*$C$DW$T$11)
    2898        .dwattr $C$DW$188, DW_AT_name("EN_CLR_31_0")
    2899        .dwattr $C$DW$188, DW_AT_TI_symbol_name("EN_CLR_31_0")
    2900        .dwattr $C$DW$188, DW_AT_bit_offset(0x00), DW_AT_bit_size(0x20)
    2901        .dwattr $C$DW$188, DW_AT_data_member_location[DW_OP_plus_uconst 0x0]
    2902        .dwattr $C$DW$188, DW_AT_accessibility(DW_ACCESS_public)
    2903        .dwattr $C$DW$188, DW_AT_decl_file("/usr/lib/ti/pru-software-support-package/include/am335x/pr
    2904        .dwattr $C$DW$188, DW_AT_decl_line(0x102)
    2905        .dwattr $C$DW$188, DW_AT_decl_column(0x0d)
    2906        .dwendtag $C$DW$T$53
    2907
    2908        .dwattr $C$DW$T$53, DW_AT_decl_file("/usr/lib/ti/pru-software-support-package/include/am335x/p
    2909        .dwattr $C$DW$T$53, DW_AT_decl_line(0x101)
    2910        .dwattr $C$DW$T$53, DW_AT_decl_column(0x13)
    2911$C$DW$T$191     .dwtag  DW_TAG_volatile_type
    2912        .dwattr $C$DW$T$191, DW_AT_type(*$C$DW$T$53)
    2913
    2914$C$DW$T$54      .dwtag  DW_TAG_structure_type
    2915        .dwattr $C$DW$T$54, DW_AT_byte_size(0x04)
    2916$C$DW$189       .dwtag  DW_TAG_member
    2917        .dwattr $C$DW$189, DW_AT_type(*$C$DW$T$11)
    2918        .dwattr $C$DW$189, DW_AT_name("EN_CLR_63_32")
    2919        .dwattr $C$DW$189, DW_AT_TI_symbol_name("EN_CLR_63_32")
    2920        .dwattr $C$DW$189, DW_AT_bit_offset(0x00), DW_AT_bit_size(0x20)
    2921        .dwattr $C$DW$189, DW_AT_data_member_location[DW_OP_plus_uconst 0x0]
    2922        .dwattr $C$DW$189, DW_AT_accessibility(DW_ACCESS_public)
    2923        .dwattr $C$DW$189, DW_AT_decl_file("/usr/lib/ti/pru-software-support-package/include/am335x/pr
    2924        .dwattr $C$DW$189, DW_AT_decl_line(0x10c)
    2925        .dwattr $C$DW$189, DW_AT_decl_column(0x0d)
    2926        .dwendtag $C$DW$T$54
    2927
    2928        .dwattr $C$DW$T$54, DW_AT_decl_file("/usr/lib/ti/pru-software-support-package/include/am335x/p
    2929        .dwattr $C$DW$T$54, DW_AT_decl_line(0x10b)
    2930        .dwattr $C$DW$T$54, DW_AT_decl_column(0x13)
    2931$C$DW$T$193     .dwtag  DW_TAG_volatile_type
    2932        .dwattr $C$DW$T$193, DW_AT_type(*$C$DW$T$54)
    2933
    2934$C$DW$T$55      .dwtag  DW_TAG_structure_type
    2935        .dwattr $C$DW$T$55, DW_AT_byte_size(0x04)
    2936$C$DW$190       .dwtag  DW_TAG_member
    2937        .dwattr $C$DW$190, DW_AT_type(*$C$DW$T$11)
    2938        .dwattr $C$DW$190, DW_AT_name("CH_MAP_0")
    2939        .dwattr $C$DW$190, DW_AT_TI_symbol_name("CH_MAP_0")
    2940        .dwattr $C$DW$190, DW_AT_bit_offset(0x1c), DW_AT_bit_size(0x04)
    2941        .dwattr $C$DW$190, DW_AT_data_member_location[DW_OP_plus_uconst 0x0]
    2942        .dwattr $C$DW$190, DW_AT_accessibility(DW_ACCESS_public)
    2943        .dwattr $C$DW$190, DW_AT_decl_file("/usr/lib/ti/pru-software-support-package/include/am335x/pr
    2944        .dwattr $C$DW$190, DW_AT_decl_line(0x119)
    2945        .dwattr $C$DW$190, DW_AT_decl_column(0x0d)
    2946$C$DW$191       .dwtag  DW_TAG_member
    2947        .dwattr $C$DW$191, DW_AT_type(*$C$DW$T$11)
    2948        .dwattr $C$DW$191, DW_AT_name("rsvd4")
    2949        .dwattr $C$DW$191, DW_AT_TI_symbol_name("rsvd4")
    2950        .dwattr $C$DW$191, DW_AT_bit_offset(0x18), DW_AT_bit_size(0x04)
    2951        .dwattr $C$DW$191, DW_AT_data_member_location[DW_OP_plus_uconst 0x0]
PRU Assembler Unix v2.1.4 Sat Apr 14 23:23:22 2018

Tools Copyright (c) 2012-2015 Texas Instruments Incorporated
main1.asm                                                            PAGE   55

    2952        .dwattr $C$DW$191, DW_AT_accessibility(DW_ACCESS_public)
    2953        .dwattr $C$DW$191, DW_AT_decl_file("/usr/lib/ti/pru-software-support-package/include/am335x/pr
    2954        .dwattr $C$DW$191, DW_AT_decl_line(0x11a)
    2955        .dwattr $C$DW$191, DW_AT_decl_column(0x0d)
    2956$C$DW$192       .dwtag  DW_TAG_member
    2957        .dwattr $C$DW$192, DW_AT_type(*$C$DW$T$11)
    2958        .dwattr $C$DW$192, DW_AT_name("CH_MAP_1")
    2959        .dwattr $C$DW$192, DW_AT_TI_symbol_name("CH_MAP_1")
    2960        .dwattr $C$DW$192, DW_AT_bit_offset(0x14), DW_AT_bit_size(0x04)
    2961        .dwattr $C$DW$192, DW_AT_data_member_location[DW_OP_plus_uconst 0x0]
    2962        .dwattr $C$DW$192, DW_AT_accessibility(DW_ACCESS_public)
    2963        .dwattr $C$DW$192, DW_AT_decl_file("/usr/lib/ti/pru-software-support-package/include/am335x/pr
    2964        .dwattr $C$DW$192, DW_AT_decl_line(0x11b)
    2965        .dwattr $C$DW$192, DW_AT_decl_column(0x0d)
    2966$C$DW$193       .dwtag  DW_TAG_member
    2967        .dwattr $C$DW$193, DW_AT_type(*$C$DW$T$11)
    2968        .dwattr $C$DW$193, DW_AT_name("rsvd12")
    2969        .dwattr $C$DW$193, DW_AT_TI_symbol_name("rsvd12")
    2970        .dwattr $C$DW$193, DW_AT_bit_offset(0x10), DW_AT_bit_size(0x04)
    2971        .dwattr $C$DW$193, DW_AT_data_member_location[DW_OP_plus_uconst 0x0]
    2972        .dwattr $C$DW$193, DW_AT_accessibility(DW_ACCESS_public)
    2973        .dwattr $C$DW$193, DW_AT_decl_file("/usr/lib/ti/pru-software-support-package/include/am335x/pr
    2974        .dwattr $C$DW$193, DW_AT_decl_line(0x11c)
    2975        .dwattr $C$DW$193, DW_AT_decl_column(0x0d)
    2976$C$DW$194       .dwtag  DW_TAG_member
    2977        .dwattr $C$DW$194, DW_AT_type(*$C$DW$T$11)
    2978        .dwattr $C$DW$194, DW_AT_name("CH_MAP_2")
    2979        .dwattr $C$DW$194, DW_AT_TI_symbol_name("CH_MAP_2")
    2980        .dwattr $C$DW$194, DW_AT_bit_offset(0x0c), DW_AT_bit_size(0x04)
    2981        .dwattr $C$DW$194, DW_AT_data_member_location[DW_OP_plus_uconst 0x0]
    2982        .dwattr $C$DW$194, DW_AT_accessibility(DW_ACCESS_public)
    2983        .dwattr $C$DW$194, DW_AT_decl_file("/usr/lib/ti/pru-software-support-package/include/am335x/pr
    2984        .dwattr $C$DW$194, DW_AT_decl_line(0x11d)
    2985        .dwattr $C$DW$194, DW_AT_decl_column(0x0d)
    2986$C$DW$195       .dwtag  DW_TAG_member
    2987        .dwattr $C$DW$195, DW_AT_type(*$C$DW$T$11)
    2988        .dwattr $C$DW$195, DW_AT_name("rsvd20")
    2989        .dwattr $C$DW$195, DW_AT_TI_symbol_name("rsvd20")
    2990        .dwattr $C$DW$195, DW_AT_bit_offset(0x08), DW_AT_bit_size(0x04)
    2991        .dwattr $C$DW$195, DW_AT_data_member_location[DW_OP_plus_uconst 0x0]
    2992        .dwattr $C$DW$195, DW_AT_accessibility(DW_ACCESS_public)
    2993        .dwattr $C$DW$195, DW_AT_decl_file("/usr/lib/ti/pru-software-support-package/include/am335x/pr
    2994        .dwattr $C$DW$195, DW_AT_decl_line(0x11e)
    2995        .dwattr $C$DW$195, DW_AT_decl_column(0x0d)
    2996$C$DW$196       .dwtag  DW_TAG_member
    2997        .dwattr $C$DW$196, DW_AT_type(*$C$DW$T$11)
    2998        .dwattr $C$DW$196, DW_AT_name("CH_MAP_3")
    2999        .dwattr $C$DW$196, DW_AT_TI_symbol_name("CH_MAP_3")
    3000        .dwattr $C$DW$196, DW_AT_bit_offset(0x04), DW_AT_bit_size(0x04)
    3001        .dwattr $C$DW$196, DW_AT_data_member_location[DW_OP_plus_uconst 0x0]
    3002        .dwattr $C$DW$196, DW_AT_accessibility(DW_ACCESS_public)
    3003        .dwattr $C$DW$196, DW_AT_decl_file("/usr/lib/ti/pru-software-support-package/include/am335x/pr
    3004        .dwattr $C$DW$196, DW_AT_decl_line(0x11f)
    3005        .dwattr $C$DW$196, DW_AT_decl_column(0x0d)
    3006$C$DW$197       .dwtag  DW_TAG_member
PRU Assembler Unix v2.1.4 Sat Apr 14 23:23:22 2018

Tools Copyright (c) 2012-2015 Texas Instruments Incorporated
main1.asm                                                            PAGE   56

    3007        .dwattr $C$DW$197, DW_AT_type(*$C$DW$T$11)
    3008        .dwattr $C$DW$197, DW_AT_name("rsvd28")
    3009        .dwattr $C$DW$197, DW_AT_TI_symbol_name("rsvd28")
    3010        .dwattr $C$DW$197, DW_AT_bit_offset(0x00), DW_AT_bit_size(0x04)
    3011        .dwattr $C$DW$197, DW_AT_data_member_location[DW_OP_plus_uconst 0x0]
    3012        .dwattr $C$DW$197, DW_AT_accessibility(DW_ACCESS_public)
    3013        .dwattr $C$DW$197, DW_AT_decl_file("/usr/lib/ti/pru-software-support-package/include/am335x/pr
    3014        .dwattr $C$DW$197, DW_AT_decl_line(0x120)
    3015        .dwattr $C$DW$197, DW_AT_decl_column(0x0d)
    3016        .dwendtag $C$DW$T$55
    3017
    3018        .dwattr $C$DW$T$55, DW_AT_decl_file("/usr/lib/ti/pru-software-support-package/include/am335x/p
    3019        .dwattr $C$DW$T$55, DW_AT_decl_line(0x118)
    3020        .dwattr $C$DW$T$55, DW_AT_decl_column(0x13)
    3021$C$DW$T$195     .dwtag  DW_TAG_volatile_type
    3022        .dwattr $C$DW$T$195, DW_AT_type(*$C$DW$T$55)
    3023
    3024$C$DW$T$56      .dwtag  DW_TAG_structure_type
    3025        .dwattr $C$DW$T$56, DW_AT_byte_size(0x04)
    3026$C$DW$198       .dwtag  DW_TAG_member
    3027        .dwattr $C$DW$198, DW_AT_type(*$C$DW$T$11)
    3028        .dwattr $C$DW$198, DW_AT_name("CH_MAP_4")
    3029        .dwattr $C$DW$198, DW_AT_TI_symbol_name("CH_MAP_4")
    3030        .dwattr $C$DW$198, DW_AT_bit_offset(0x1c), DW_AT_bit_size(0x04)
    3031        .dwattr $C$DW$198, DW_AT_data_member_location[DW_OP_plus_uconst 0x0]
    3032        .dwattr $C$DW$198, DW_AT_accessibility(DW_ACCESS_public)
    3033        .dwattr $C$DW$198, DW_AT_decl_file("/usr/lib/ti/pru-software-support-package/include/am335x/pr
    3034        .dwattr $C$DW$198, DW_AT_decl_line(0x12a)
    3035        .dwattr $C$DW$198, DW_AT_decl_column(0x0d)
    3036$C$DW$199       .dwtag  DW_TAG_member
    3037        .dwattr $C$DW$199, DW_AT_type(*$C$DW$T$11)
    3038        .dwattr $C$DW$199, DW_AT_name("rsvd4")
    3039        .dwattr $C$DW$199, DW_AT_TI_symbol_name("rsvd4")
    3040        .dwattr $C$DW$199, DW_AT_bit_offset(0x18), DW_AT_bit_size(0x04)
    3041        .dwattr $C$DW$199, DW_AT_data_member_location[DW_OP_plus_uconst 0x0]
    3042        .dwattr $C$DW$199, DW_AT_accessibility(DW_ACCESS_public)
    3043        .dwattr $C$DW$199, DW_AT_decl_file("/usr/lib/ti/pru-software-support-package/include/am335x/pr
    3044        .dwattr $C$DW$199, DW_AT_decl_line(0x12b)
    3045        .dwattr $C$DW$199, DW_AT_decl_column(0x0d)
    3046$C$DW$200       .dwtag  DW_TAG_member
    3047        .dwattr $C$DW$200, DW_AT_type(*$C$DW$T$11)
    3048        .dwattr $C$DW$200, DW_AT_name("CH_MAP_5")
    3049        .dwattr $C$DW$200, DW_AT_TI_symbol_name("CH_MAP_5")
    3050        .dwattr $C$DW$200, DW_AT_bit_offset(0x14), DW_AT_bit_size(0x04)
    3051        .dwattr $C$DW$200, DW_AT_data_member_location[DW_OP_plus_uconst 0x0]
    3052        .dwattr $C$DW$200, DW_AT_accessibility(DW_ACCESS_public)
    3053        .dwattr $C$DW$200, DW_AT_decl_file("/usr/lib/ti/pru-software-support-package/include/am335x/pr
    3054        .dwattr $C$DW$200, DW_AT_decl_line(0x12c)
    3055        .dwattr $C$DW$200, DW_AT_decl_column(0x0d)
    3056$C$DW$201       .dwtag  DW_TAG_member
    3057        .dwattr $C$DW$201, DW_AT_type(*$C$DW$T$11)
    3058        .dwattr $C$DW$201, DW_AT_name("rsvd12")
    3059        .dwattr $C$DW$201, DW_AT_TI_symbol_name("rsvd12")
    3060        .dwattr $C$DW$201, DW_AT_bit_offset(0x10), DW_AT_bit_size(0x04)
    3061        .dwattr $C$DW$201, DW_AT_data_member_location[DW_OP_plus_uconst 0x0]
PRU Assembler Unix v2.1.4 Sat Apr 14 23:23:22 2018

Tools Copyright (c) 2012-2015 Texas Instruments Incorporated
main1.asm                                                            PAGE   57

    3062        .dwattr $C$DW$201, DW_AT_accessibility(DW_ACCESS_public)
    3063        .dwattr $C$DW$201, DW_AT_decl_file("/usr/lib/ti/pru-software-support-package/include/am335x/pr
    3064        .dwattr $C$DW$201, DW_AT_decl_line(0x12d)
    3065        .dwattr $C$DW$201, DW_AT_decl_column(0x0d)
    3066$C$DW$202       .dwtag  DW_TAG_member
    3067        .dwattr $C$DW$202, DW_AT_type(*$C$DW$T$11)
    3068        .dwattr $C$DW$202, DW_AT_name("CH_MAP_6")
    3069        .dwattr $C$DW$202, DW_AT_TI_symbol_name("CH_MAP_6")
    3070        .dwattr $C$DW$202, DW_AT_bit_offset(0x0c), DW_AT_bit_size(0x04)
    3071        .dwattr $C$DW$202, DW_AT_data_member_location[DW_OP_plus_uconst 0x0]
    3072        .dwattr $C$DW$202, DW_AT_accessibility(DW_ACCESS_public)
    3073        .dwattr $C$DW$202, DW_AT_decl_file("/usr/lib/ti/pru-software-support-package/include/am335x/pr
    3074        .dwattr $C$DW$202, DW_AT_decl_line(0x12e)
    3075        .dwattr $C$DW$202, DW_AT_decl_column(0x0d)
    3076$C$DW$203       .dwtag  DW_TAG_member
    3077        .dwattr $C$DW$203, DW_AT_type(*$C$DW$T$11)
    3078        .dwattr $C$DW$203, DW_AT_name("rsvd20")
    3079        .dwattr $C$DW$203, DW_AT_TI_symbol_name("rsvd20")
    3080        .dwattr $C$DW$203, DW_AT_bit_offset(0x08), DW_AT_bit_size(0x04)
    3081        .dwattr $C$DW$203, DW_AT_data_member_location[DW_OP_plus_uconst 0x0]
    3082        .dwattr $C$DW$203, DW_AT_accessibility(DW_ACCESS_public)
    3083        .dwattr $C$DW$203, DW_AT_decl_file("/usr/lib/ti/pru-software-support-package/include/am335x/pr
    3084        .dwattr $C$DW$203, DW_AT_decl_line(0x12f)
    3085        .dwattr $C$DW$203, DW_AT_decl_column(0x0d)
    3086$C$DW$204       .dwtag  DW_TAG_member
    3087        .dwattr $C$DW$204, DW_AT_type(*$C$DW$T$11)
    3088        .dwattr $C$DW$204, DW_AT_name("CH_MAP_7")
    3089        .dwattr $C$DW$204, DW_AT_TI_symbol_name("CH_MAP_7")
    3090        .dwattr $C$DW$204, DW_AT_bit_offset(0x04), DW_AT_bit_size(0x04)
    3091        .dwattr $C$DW$204, DW_AT_data_member_location[DW_OP_plus_uconst 0x0]
    3092        .dwattr $C$DW$204, DW_AT_accessibility(DW_ACCESS_public)
    3093        .dwattr $C$DW$204, DW_AT_decl_file("/usr/lib/ti/pru-software-support-package/include/am335x/pr
    3094        .dwattr $C$DW$204, DW_AT_decl_line(0x130)
    3095        .dwattr $C$DW$204, DW_AT_decl_column(0x0d)
    3096$C$DW$205       .dwtag  DW_TAG_member
    3097        .dwattr $C$DW$205, DW_AT_type(*$C$DW$T$11)
    3098        .dwattr $C$DW$205, DW_AT_name("rsvd28")
    3099        .dwattr $C$DW$205, DW_AT_TI_symbol_name("rsvd28")
    3100        .dwattr $C$DW$205, DW_AT_bit_offset(0x00), DW_AT_bit_size(0x04)
    3101        .dwattr $C$DW$205, DW_AT_data_member_location[DW_OP_plus_uconst 0x0]
    3102        .dwattr $C$DW$205, DW_AT_accessibility(DW_ACCESS_public)
    3103        .dwattr $C$DW$205, DW_AT_decl_file("/usr/lib/ti/pru-software-support-package/include/am335x/pr
    3104        .dwattr $C$DW$205, DW_AT_decl_line(0x131)
    3105        .dwattr $C$DW$205, DW_AT_decl_column(0x0d)
    3106        .dwendtag $C$DW$T$56
    3107
    3108        .dwattr $C$DW$T$56, DW_AT_decl_file("/usr/lib/ti/pru-software-support-package/include/am335x/p
    3109        .dwattr $C$DW$T$56, DW_AT_decl_line(0x129)
    3110        .dwattr $C$DW$T$56, DW_AT_decl_column(0x13)
    3111$C$DW$T$197     .dwtag  DW_TAG_volatile_type
    3112        .dwattr $C$DW$T$197, DW_AT_type(*$C$DW$T$56)
    3113
    3114$C$DW$T$57      .dwtag  DW_TAG_structure_type
    3115        .dwattr $C$DW$T$57, DW_AT_byte_size(0x04)
    3116$C$DW$206       .dwtag  DW_TAG_member
PRU Assembler Unix v2.1.4 Sat Apr 14 23:23:22 2018

Tools Copyright (c) 2012-2015 Texas Instruments Incorporated
main1.asm                                                            PAGE   58

    3117        .dwattr $C$DW$206, DW_AT_type(*$C$DW$T$11)
    3118        .dwattr $C$DW$206, DW_AT_name("CH_MAP_8")
    3119        .dwattr $C$DW$206, DW_AT_TI_symbol_name("CH_MAP_8")
    3120        .dwattr $C$DW$206, DW_AT_bit_offset(0x1c), DW_AT_bit_size(0x04)
    3121        .dwattr $C$DW$206, DW_AT_data_member_location[DW_OP_plus_uconst 0x0]
    3122        .dwattr $C$DW$206, DW_AT_accessibility(DW_ACCESS_public)
    3123        .dwattr $C$DW$206, DW_AT_decl_file("/usr/lib/ti/pru-software-support-package/include/am335x/pr
    3124        .dwattr $C$DW$206, DW_AT_decl_line(0x13b)
    3125        .dwattr $C$DW$206, DW_AT_decl_column(0x0d)
    3126$C$DW$207       .dwtag  DW_TAG_member
    3127        .dwattr $C$DW$207, DW_AT_type(*$C$DW$T$11)
    3128        .dwattr $C$DW$207, DW_AT_name("rsvd4")
    3129        .dwattr $C$DW$207, DW_AT_TI_symbol_name("rsvd4")
    3130        .dwattr $C$DW$207, DW_AT_bit_offset(0x18), DW_AT_bit_size(0x04)
    3131        .dwattr $C$DW$207, DW_AT_data_member_location[DW_OP_plus_uconst 0x0]
    3132        .dwattr $C$DW$207, DW_AT_accessibility(DW_ACCESS_public)
    3133        .dwattr $C$DW$207, DW_AT_decl_file("/usr/lib/ti/pru-software-support-package/include/am335x/pr
    3134        .dwattr $C$DW$207, DW_AT_decl_line(0x13c)
    3135        .dwattr $C$DW$207, DW_AT_decl_column(0x0d)
    3136$C$DW$208       .dwtag  DW_TAG_member
    3137        .dwattr $C$DW$208, DW_AT_type(*$C$DW$T$11)
    3138        .dwattr $C$DW$208, DW_AT_name("CH_MAP_9")
    3139        .dwattr $C$DW$208, DW_AT_TI_symbol_name("CH_MAP_9")
    3140        .dwattr $C$DW$208, DW_AT_bit_offset(0x14), DW_AT_bit_size(0x04)
    3141        .dwattr $C$DW$208, DW_AT_data_member_location[DW_OP_plus_uconst 0x0]
    3142        .dwattr $C$DW$208, DW_AT_accessibility(DW_ACCESS_public)
    3143        .dwattr $C$DW$208, DW_AT_decl_file("/usr/lib/ti/pru-software-support-package/include/am335x/pr
    3144        .dwattr $C$DW$208, DW_AT_decl_line(0x13d)
    3145        .dwattr $C$DW$208, DW_AT_decl_column(0x0d)
    3146$C$DW$209       .dwtag  DW_TAG_member
    3147        .dwattr $C$DW$209, DW_AT_type(*$C$DW$T$11)
    3148        .dwattr $C$DW$209, DW_AT_name("rsvd12")
    3149        .dwattr $C$DW$209, DW_AT_TI_symbol_name("rsvd12")
    3150        .dwattr $C$DW$209, DW_AT_bit_offset(0x10), DW_AT_bit_size(0x04)
    3151        .dwattr $C$DW$209, DW_AT_data_member_location[DW_OP_plus_uconst 0x0]
    3152        .dwattr $C$DW$209, DW_AT_accessibility(DW_ACCESS_public)
    3153        .dwattr $C$DW$209, DW_AT_decl_file("/usr/lib/ti/pru-software-support-package/include/am335x/pr
    3154        .dwattr $C$DW$209, DW_AT_decl_line(0x13e)
    3155        .dwattr $C$DW$209, DW_AT_decl_column(0x0d)
    3156$C$DW$210       .dwtag  DW_TAG_member
    3157        .dwattr $C$DW$210, DW_AT_type(*$C$DW$T$11)
    3158        .dwattr $C$DW$210, DW_AT_name("CH_MAP_10")
    3159        .dwattr $C$DW$210, DW_AT_TI_symbol_name("CH_MAP_10")
    3160        .dwattr $C$DW$210, DW_AT_bit_offset(0x0c), DW_AT_bit_size(0x04)
    3161        .dwattr $C$DW$210, DW_AT_data_member_location[DW_OP_plus_uconst 0x0]
    3162        .dwattr $C$DW$210, DW_AT_accessibility(DW_ACCESS_public)
    3163        .dwattr $C$DW$210, DW_AT_decl_file("/usr/lib/ti/pru-software-support-package/include/am335x/pr
    3164        .dwattr $C$DW$210, DW_AT_decl_line(0x13f)
    3165        .dwattr $C$DW$210, DW_AT_decl_column(0x0d)
    3166$C$DW$211       .dwtag  DW_TAG_member
    3167        .dwattr $C$DW$211, DW_AT_type(*$C$DW$T$11)
    3168        .dwattr $C$DW$211, DW_AT_name("rsvd20")
    3169        .dwattr $C$DW$211, DW_AT_TI_symbol_name("rsvd20")
    3170        .dwattr $C$DW$211, DW_AT_bit_offset(0x08), DW_AT_bit_size(0x04)
    3171        .dwattr $C$DW$211, DW_AT_data_member_location[DW_OP_plus_uconst 0x0]
PRU Assembler Unix v2.1.4 Sat Apr 14 23:23:22 2018

Tools Copyright (c) 2012-2015 Texas Instruments Incorporated
main1.asm                                                            PAGE   59

    3172        .dwattr $C$DW$211, DW_AT_accessibility(DW_ACCESS_public)
    3173        .dwattr $C$DW$211, DW_AT_decl_file("/usr/lib/ti/pru-software-support-package/include/am335x/pr
    3174        .dwattr $C$DW$211, DW_AT_decl_line(0x140)
    3175        .dwattr $C$DW$211, DW_AT_decl_column(0x0d)
    3176$C$DW$212       .dwtag  DW_TAG_member
    3177        .dwattr $C$DW$212, DW_AT_type(*$C$DW$T$11)
    3178        .dwattr $C$DW$212, DW_AT_name("CH_MAP_11")
    3179        .dwattr $C$DW$212, DW_AT_TI_symbol_name("CH_MAP_11")
    3180        .dwattr $C$DW$212, DW_AT_bit_offset(0x04), DW_AT_bit_size(0x04)
    3181        .dwattr $C$DW$212, DW_AT_data_member_location[DW_OP_plus_uconst 0x0]
    3182        .dwattr $C$DW$212, DW_AT_accessibility(DW_ACCESS_public)
    3183        .dwattr $C$DW$212, DW_AT_decl_file("/usr/lib/ti/pru-software-support-package/include/am335x/pr
    3184        .dwattr $C$DW$212, DW_AT_decl_line(0x141)
    3185        .dwattr $C$DW$212, DW_AT_decl_column(0x0d)
    3186$C$DW$213       .dwtag  DW_TAG_member
    3187        .dwattr $C$DW$213, DW_AT_type(*$C$DW$T$11)
    3188        .dwattr $C$DW$213, DW_AT_name("rsvd28")
    3189        .dwattr $C$DW$213, DW_AT_TI_symbol_name("rsvd28")
    3190        .dwattr $C$DW$213, DW_AT_bit_offset(0x00), DW_AT_bit_size(0x04)
    3191        .dwattr $C$DW$213, DW_AT_data_member_location[DW_OP_plus_uconst 0x0]
    3192        .dwattr $C$DW$213, DW_AT_accessibility(DW_ACCESS_public)
    3193        .dwattr $C$DW$213, DW_AT_decl_file("/usr/lib/ti/pru-software-support-package/include/am335x/pr
    3194        .dwattr $C$DW$213, DW_AT_decl_line(0x142)
    3195        .dwattr $C$DW$213, DW_AT_decl_column(0x0d)
    3196        .dwendtag $C$DW$T$57
    3197
    3198        .dwattr $C$DW$T$57, DW_AT_decl_file("/usr/lib/ti/pru-software-support-package/include/am335x/p
    3199        .dwattr $C$DW$T$57, DW_AT_decl_line(0x13a)
    3200        .dwattr $C$DW$T$57, DW_AT_decl_column(0x13)
    3201$C$DW$T$199     .dwtag  DW_TAG_volatile_type
    3202        .dwattr $C$DW$T$199, DW_AT_type(*$C$DW$T$57)
    3203
    3204$C$DW$T$58      .dwtag  DW_TAG_structure_type
    3205        .dwattr $C$DW$T$58, DW_AT_byte_size(0x04)
    3206$C$DW$214       .dwtag  DW_TAG_member
    3207        .dwattr $C$DW$214, DW_AT_type(*$C$DW$T$11)
    3208        .dwattr $C$DW$214, DW_AT_name("CH_MAP_12")
    3209        .dwattr $C$DW$214, DW_AT_TI_symbol_name("CH_MAP_12")
    3210        .dwattr $C$DW$214, DW_AT_bit_offset(0x1c), DW_AT_bit_size(0x04)
    3211        .dwattr $C$DW$214, DW_AT_data_member_location[DW_OP_plus_uconst 0x0]
    3212        .dwattr $C$DW$214, DW_AT_accessibility(DW_ACCESS_public)
    3213        .dwattr $C$DW$214, DW_AT_decl_file("/usr/lib/ti/pru-software-support-package/include/am335x/pr
    3214        .dwattr $C$DW$214, DW_AT_decl_line(0x14c)
    3215        .dwattr $C$DW$214, DW_AT_decl_column(0x0d)
    3216$C$DW$215       .dwtag  DW_TAG_member
    3217        .dwattr $C$DW$215, DW_AT_type(*$C$DW$T$11)
    3218        .dwattr $C$DW$215, DW_AT_name("rsvd4")
    3219        .dwattr $C$DW$215, DW_AT_TI_symbol_name("rsvd4")
    3220        .dwattr $C$DW$215, DW_AT_bit_offset(0x18), DW_AT_bit_size(0x04)
    3221        .dwattr $C$DW$215, DW_AT_data_member_location[DW_OP_plus_uconst 0x0]
    3222        .dwattr $C$DW$215, DW_AT_accessibility(DW_ACCESS_public)
    3223        .dwattr $C$DW$215, DW_AT_decl_file("/usr/lib/ti/pru-software-support-package/include/am335x/pr
    3224        .dwattr $C$DW$215, DW_AT_decl_line(0x14d)
    3225        .dwattr $C$DW$215, DW_AT_decl_column(0x0d)
    3226$C$DW$216       .dwtag  DW_TAG_member
PRU Assembler Unix v2.1.4 Sat Apr 14 23:23:22 2018

Tools Copyright (c) 2012-2015 Texas Instruments Incorporated
main1.asm                                                            PAGE   60

    3227        .dwattr $C$DW$216, DW_AT_type(*$C$DW$T$11)
    3228        .dwattr $C$DW$216, DW_AT_name("CH_MAP_13")
    3229        .dwattr $C$DW$216, DW_AT_TI_symbol_name("CH_MAP_13")
    3230        .dwattr $C$DW$216, DW_AT_bit_offset(0x14), DW_AT_bit_size(0x04)
    3231        .dwattr $C$DW$216, DW_AT_data_member_location[DW_OP_plus_uconst 0x0]
    3232        .dwattr $C$DW$216, DW_AT_accessibility(DW_ACCESS_public)
    3233        .dwattr $C$DW$216, DW_AT_decl_file("/usr/lib/ti/pru-software-support-package/include/am335x/pr
    3234        .dwattr $C$DW$216, DW_AT_decl_line(0x14e)
    3235        .dwattr $C$DW$216, DW_AT_decl_column(0x0d)
    3236$C$DW$217       .dwtag  DW_TAG_member
    3237        .dwattr $C$DW$217, DW_AT_type(*$C$DW$T$11)
    3238        .dwattr $C$DW$217, DW_AT_name("rsvd12")
    3239        .dwattr $C$DW$217, DW_AT_TI_symbol_name("rsvd12")
    3240        .dwattr $C$DW$217, DW_AT_bit_offset(0x10), DW_AT_bit_size(0x04)
    3241        .dwattr $C$DW$217, DW_AT_data_member_location[DW_OP_plus_uconst 0x0]
    3242        .dwattr $C$DW$217, DW_AT_accessibility(DW_ACCESS_public)
    3243        .dwattr $C$DW$217, DW_AT_decl_file("/usr/lib/ti/pru-software-support-package/include/am335x/pr
    3244        .dwattr $C$DW$217, DW_AT_decl_line(0x14f)
    3245        .dwattr $C$DW$217, DW_AT_decl_column(0x0d)
    3246$C$DW$218       .dwtag  DW_TAG_member
    3247        .dwattr $C$DW$218, DW_AT_type(*$C$DW$T$11)
    3248        .dwattr $C$DW$218, DW_AT_name("CH_MAP_14")
    3249        .dwattr $C$DW$218, DW_AT_TI_symbol_name("CH_MAP_14")
    3250        .dwattr $C$DW$218, DW_AT_bit_offset(0x0c), DW_AT_bit_size(0x04)
    3251        .dwattr $C$DW$218, DW_AT_data_member_location[DW_OP_plus_uconst 0x0]
    3252        .dwattr $C$DW$218, DW_AT_accessibility(DW_ACCESS_public)
    3253        .dwattr $C$DW$218, DW_AT_decl_file("/usr/lib/ti/pru-software-support-package/include/am335x/pr
    3254        .dwattr $C$DW$218, DW_AT_decl_line(0x150)
    3255        .dwattr $C$DW$218, DW_AT_decl_column(0x0d)
    3256$C$DW$219       .dwtag  DW_TAG_member
    3257        .dwattr $C$DW$219, DW_AT_type(*$C$DW$T$11)
    3258        .dwattr $C$DW$219, DW_AT_name("rsvd20")
    3259        .dwattr $C$DW$219, DW_AT_TI_symbol_name("rsvd20")
    3260        .dwattr $C$DW$219, DW_AT_bit_offset(0x08), DW_AT_bit_size(0x04)
    3261        .dwattr $C$DW$219, DW_AT_data_member_location[DW_OP_plus_uconst 0x0]
    3262        .dwattr $C$DW$219, DW_AT_accessibility(DW_ACCESS_public)
    3263        .dwattr $C$DW$219, DW_AT_decl_file("/usr/lib/ti/pru-software-support-package/include/am335x/pr
    3264        .dwattr $C$DW$219, DW_AT_decl_line(0x151)
    3265        .dwattr $C$DW$219, DW_AT_decl_column(0x0d)
    3266$C$DW$220       .dwtag  DW_TAG_member
    3267        .dwattr $C$DW$220, DW_AT_type(*$C$DW$T$11)
    3268        .dwattr $C$DW$220, DW_AT_name("CH_MAP_15")
    3269        .dwattr $C$DW$220, DW_AT_TI_symbol_name("CH_MAP_15")
    3270        .dwattr $C$DW$220, DW_AT_bit_offset(0x04), DW_AT_bit_size(0x04)
    3271        .dwattr $C$DW$220, DW_AT_data_member_location[DW_OP_plus_uconst 0x0]
    3272        .dwattr $C$DW$220, DW_AT_accessibility(DW_ACCESS_public)
    3273        .dwattr $C$DW$220, DW_AT_decl_file("/usr/lib/ti/pru-software-support-package/include/am335x/pr
    3274        .dwattr $C$DW$220, DW_AT_decl_line(0x152)
    3275        .dwattr $C$DW$220, DW_AT_decl_column(0x0d)
    3276$C$DW$221       .dwtag  DW_TAG_member
    3277        .dwattr $C$DW$221, DW_AT_type(*$C$DW$T$11)
    3278        .dwattr $C$DW$221, DW_AT_name("rsvd28")
    3279        .dwattr $C$DW$221, DW_AT_TI_symbol_name("rsvd28")
    3280        .dwattr $C$DW$221, DW_AT_bit_offset(0x00), DW_AT_bit_size(0x04)
    3281        .dwattr $C$DW$221, DW_AT_data_member_location[DW_OP_plus_uconst 0x0]
PRU Assembler Unix v2.1.4 Sat Apr 14 23:23:22 2018

Tools Copyright (c) 2012-2015 Texas Instruments Incorporated
main1.asm                                                            PAGE   61

    3282        .dwattr $C$DW$221, DW_AT_accessibility(DW_ACCESS_public)
    3283        .dwattr $C$DW$221, DW_AT_decl_file("/usr/lib/ti/pru-software-support-package/include/am335x/pr
    3284        .dwattr $C$DW$221, DW_AT_decl_line(0x153)
    3285        .dwattr $C$DW$221, DW_AT_decl_column(0x0d)
    3286        .dwendtag $C$DW$T$58
    3287
    3288        .dwattr $C$DW$T$58, DW_AT_decl_file("/usr/lib/ti/pru-software-support-package/include/am335x/p
    3289        .dwattr $C$DW$T$58, DW_AT_decl_line(0x14b)
    3290        .dwattr $C$DW$T$58, DW_AT_decl_column(0x13)
    3291$C$DW$T$201     .dwtag  DW_TAG_volatile_type
    3292        .dwattr $C$DW$T$201, DW_AT_type(*$C$DW$T$58)
    3293
    3294$C$DW$T$59      .dwtag  DW_TAG_structure_type
    3295        .dwattr $C$DW$T$59, DW_AT_byte_size(0x04)
    3296$C$DW$222       .dwtag  DW_TAG_member
    3297        .dwattr $C$DW$222, DW_AT_type(*$C$DW$T$11)
    3298        .dwattr $C$DW$222, DW_AT_name("CH_MAP_16")
    3299        .dwattr $C$DW$222, DW_AT_TI_symbol_name("CH_MAP_16")
    3300        .dwattr $C$DW$222, DW_AT_bit_offset(0x1c), DW_AT_bit_size(0x04)
    3301        .dwattr $C$DW$222, DW_AT_data_member_location[DW_OP_plus_uconst 0x0]
    3302        .dwattr $C$DW$222, DW_AT_accessibility(DW_ACCESS_public)
    3303        .dwattr $C$DW$222, DW_AT_decl_file("/usr/lib/ti/pru-software-support-package/include/am335x/pr
    3304        .dwattr $C$DW$222, DW_AT_decl_line(0x15d)
    3305        .dwattr $C$DW$222, DW_AT_decl_column(0x0d)
    3306$C$DW$223       .dwtag  DW_TAG_member
    3307        .dwattr $C$DW$223, DW_AT_type(*$C$DW$T$11)
    3308        .dwattr $C$DW$223, DW_AT_name("rsvd4")
    3309        .dwattr $C$DW$223, DW_AT_TI_symbol_name("rsvd4")
    3310        .dwattr $C$DW$223, DW_AT_bit_offset(0x18), DW_AT_bit_size(0x04)
    3311        .dwattr $C$DW$223, DW_AT_data_member_location[DW_OP_plus_uconst 0x0]
    3312        .dwattr $C$DW$223, DW_AT_accessibility(DW_ACCESS_public)
    3313        .dwattr $C$DW$223, DW_AT_decl_file("/usr/lib/ti/pru-software-support-package/include/am335x/pr
    3314        .dwattr $C$DW$223, DW_AT_decl_line(0x15e)
    3315        .dwattr $C$DW$223, DW_AT_decl_column(0x0d)
    3316$C$DW$224       .dwtag  DW_TAG_member
    3317        .dwattr $C$DW$224, DW_AT_type(*$C$DW$T$11)
    3318        .dwattr $C$DW$224, DW_AT_name("CH_MAP_17")
    3319        .dwattr $C$DW$224, DW_AT_TI_symbol_name("CH_MAP_17")
    3320        .dwattr $C$DW$224, DW_AT_bit_offset(0x14), DW_AT_bit_size(0x04)
    3321        .dwattr $C$DW$224, DW_AT_data_member_location[DW_OP_plus_uconst 0x0]
    3322        .dwattr $C$DW$224, DW_AT_accessibility(DW_ACCESS_public)
    3323        .dwattr $C$DW$224, DW_AT_decl_file("/usr/lib/ti/pru-software-support-package/include/am335x/pr
    3324        .dwattr $C$DW$224, DW_AT_decl_line(0x15f)
    3325        .dwattr $C$DW$224, DW_AT_decl_column(0x0d)
    3326$C$DW$225       .dwtag  DW_TAG_member
    3327        .dwattr $C$DW$225, DW_AT_type(*$C$DW$T$11)
    3328        .dwattr $C$DW$225, DW_AT_name("rsvd12")
    3329        .dwattr $C$DW$225, DW_AT_TI_symbol_name("rsvd12")
    3330        .dwattr $C$DW$225, DW_AT_bit_offset(0x10), DW_AT_bit_size(0x04)
    3331        .dwattr $C$DW$225, DW_AT_data_member_location[DW_OP_plus_uconst 0x0]
    3332        .dwattr $C$DW$225, DW_AT_accessibility(DW_ACCESS_public)
    3333        .dwattr $C$DW$225, DW_AT_decl_file("/usr/lib/ti/pru-software-support-package/include/am335x/pr
    3334        .dwattr $C$DW$225, DW_AT_decl_line(0x160)
    3335        .dwattr $C$DW$225, DW_AT_decl_column(0x0d)
    3336$C$DW$226       .dwtag  DW_TAG_member
PRU Assembler Unix v2.1.4 Sat Apr 14 23:23:22 2018

Tools Copyright (c) 2012-2015 Texas Instruments Incorporated
main1.asm                                                            PAGE   62

    3337        .dwattr $C$DW$226, DW_AT_type(*$C$DW$T$11)
    3338        .dwattr $C$DW$226, DW_AT_name("CH_MAP_18")
    3339        .dwattr $C$DW$226, DW_AT_TI_symbol_name("CH_MAP_18")
    3340        .dwattr $C$DW$226, DW_AT_bit_offset(0x0c), DW_AT_bit_size(0x04)
    3341        .dwattr $C$DW$226, DW_AT_data_member_location[DW_OP_plus_uconst 0x0]
    3342        .dwattr $C$DW$226, DW_AT_accessibility(DW_ACCESS_public)
    3343        .dwattr $C$DW$226, DW_AT_decl_file("/usr/lib/ti/pru-software-support-package/include/am335x/pr
    3344        .dwattr $C$DW$226, DW_AT_decl_line(0x161)
    3345        .dwattr $C$DW$226, DW_AT_decl_column(0x0d)
    3346$C$DW$227       .dwtag  DW_TAG_member
    3347        .dwattr $C$DW$227, DW_AT_type(*$C$DW$T$11)
    3348        .dwattr $C$DW$227, DW_AT_name("rsvd20")
    3349        .dwattr $C$DW$227, DW_AT_TI_symbol_name("rsvd20")
    3350        .dwattr $C$DW$227, DW_AT_bit_offset(0x08), DW_AT_bit_size(0x04)
    3351        .dwattr $C$DW$227, DW_AT_data_member_location[DW_OP_plus_uconst 0x0]
    3352        .dwattr $C$DW$227, DW_AT_accessibility(DW_ACCESS_public)
    3353        .dwattr $C$DW$227, DW_AT_decl_file("/usr/lib/ti/pru-software-support-package/include/am335x/pr
    3354        .dwattr $C$DW$227, DW_AT_decl_line(0x162)
    3355        .dwattr $C$DW$227, DW_AT_decl_column(0x0d)
    3356$C$DW$228       .dwtag  DW_TAG_member
    3357        .dwattr $C$DW$228, DW_AT_type(*$C$DW$T$11)
    3358        .dwattr $C$DW$228, DW_AT_name("CH_MAP_19")
    3359        .dwattr $C$DW$228, DW_AT_TI_symbol_name("CH_MAP_19")
    3360        .dwattr $C$DW$228, DW_AT_bit_offset(0x04), DW_AT_bit_size(0x04)
    3361        .dwattr $C$DW$228, DW_AT_data_member_location[DW_OP_plus_uconst 0x0]
    3362        .dwattr $C$DW$228, DW_AT_accessibility(DW_ACCESS_public)
    3363        .dwattr $C$DW$228, DW_AT_decl_file("/usr/lib/ti/pru-software-support-package/include/am335x/pr
    3364        .dwattr $C$DW$228, DW_AT_decl_line(0x163)
    3365        .dwattr $C$DW$228, DW_AT_decl_column(0x0d)
    3366$C$DW$229       .dwtag  DW_TAG_member
    3367        .dwattr $C$DW$229, DW_AT_type(*$C$DW$T$11)
    3368        .dwattr $C$DW$229, DW_AT_name("rsvd28")
    3369        .dwattr $C$DW$229, DW_AT_TI_symbol_name("rsvd28")
    3370        .dwattr $C$DW$229, DW_AT_bit_offset(0x00), DW_AT_bit_size(0x04)
    3371        .dwattr $C$DW$229, DW_AT_data_member_location[DW_OP_plus_uconst 0x0]
    3372        .dwattr $C$DW$229, DW_AT_accessibility(DW_ACCESS_public)
    3373        .dwattr $C$DW$229, DW_AT_decl_file("/usr/lib/ti/pru-software-support-package/include/am335x/pr
    3374        .dwattr $C$DW$229, DW_AT_decl_line(0x164)
    3375        .dwattr $C$DW$229, DW_AT_decl_column(0x0d)
    3376        .dwendtag $C$DW$T$59
    3377
    3378        .dwattr $C$DW$T$59, DW_AT_decl_file("/usr/lib/ti/pru-software-support-package/include/am335x/p
    3379        .dwattr $C$DW$T$59, DW_AT_decl_line(0x15c)
    3380        .dwattr $C$DW$T$59, DW_AT_decl_column(0x13)
    3381$C$DW$T$203     .dwtag  DW_TAG_volatile_type
    3382        .dwattr $C$DW$T$203, DW_AT_type(*$C$DW$T$59)
    3383
    3384$C$DW$T$60      .dwtag  DW_TAG_structure_type
    3385        .dwattr $C$DW$T$60, DW_AT_byte_size(0x04)
    3386$C$DW$230       .dwtag  DW_TAG_member
    3387        .dwattr $C$DW$230, DW_AT_type(*$C$DW$T$11)
    3388        .dwattr $C$DW$230, DW_AT_name("CH_MAP_20")
    3389        .dwattr $C$DW$230, DW_AT_TI_symbol_name("CH_MAP_20")
    3390        .dwattr $C$DW$230, DW_AT_bit_offset(0x1c), DW_AT_bit_size(0x04)
    3391        .dwattr $C$DW$230, DW_AT_data_member_location[DW_OP_plus_uconst 0x0]
PRU Assembler Unix v2.1.4 Sat Apr 14 23:23:22 2018

Tools Copyright (c) 2012-2015 Texas Instruments Incorporated
main1.asm                                                            PAGE   63

    3392        .dwattr $C$DW$230, DW_AT_accessibility(DW_ACCESS_public)
    3393        .dwattr $C$DW$230, DW_AT_decl_file("/usr/lib/ti/pru-software-support-package/include/am335x/pr
    3394        .dwattr $C$DW$230, DW_AT_decl_line(0x16e)
    3395        .dwattr $C$DW$230, DW_AT_decl_column(0x0d)
    3396$C$DW$231       .dwtag  DW_TAG_member
    3397        .dwattr $C$DW$231, DW_AT_type(*$C$DW$T$11)
    3398        .dwattr $C$DW$231, DW_AT_name("rsvd4")
    3399        .dwattr $C$DW$231, DW_AT_TI_symbol_name("rsvd4")
    3400        .dwattr $C$DW$231, DW_AT_bit_offset(0x18), DW_AT_bit_size(0x04)
    3401        .dwattr $C$DW$231, DW_AT_data_member_location[DW_OP_plus_uconst 0x0]
    3402        .dwattr $C$DW$231, DW_AT_accessibility(DW_ACCESS_public)
    3403        .dwattr $C$DW$231, DW_AT_decl_file("/usr/lib/ti/pru-software-support-package/include/am335x/pr
    3404        .dwattr $C$DW$231, DW_AT_decl_line(0x16f)
    3405        .dwattr $C$DW$231, DW_AT_decl_column(0x0d)
    3406$C$DW$232       .dwtag  DW_TAG_member
    3407        .dwattr $C$DW$232, DW_AT_type(*$C$DW$T$11)
    3408        .dwattr $C$DW$232, DW_AT_name("CH_MAP_21")
    3409        .dwattr $C$DW$232, DW_AT_TI_symbol_name("CH_MAP_21")
    3410        .dwattr $C$DW$232, DW_AT_bit_offset(0x14), DW_AT_bit_size(0x04)
    3411        .dwattr $C$DW$232, DW_AT_data_member_location[DW_OP_plus_uconst 0x0]
    3412        .dwattr $C$DW$232, DW_AT_accessibility(DW_ACCESS_public)
    3413        .dwattr $C$DW$232, DW_AT_decl_file("/usr/lib/ti/pru-software-support-package/include/am335x/pr
    3414        .dwattr $C$DW$232, DW_AT_decl_line(0x170)
    3415        .dwattr $C$DW$232, DW_AT_decl_column(0x0d)
    3416$C$DW$233       .dwtag  DW_TAG_member
    3417        .dwattr $C$DW$233, DW_AT_type(*$C$DW$T$11)
    3418        .dwattr $C$DW$233, DW_AT_name("rsvd12")
    3419        .dwattr $C$DW$233, DW_AT_TI_symbol_name("rsvd12")
    3420        .dwattr $C$DW$233, DW_AT_bit_offset(0x10), DW_AT_bit_size(0x04)
    3421        .dwattr $C$DW$233, DW_AT_data_member_location[DW_OP_plus_uconst 0x0]
    3422        .dwattr $C$DW$233, DW_AT_accessibility(DW_ACCESS_public)
    3423        .dwattr $C$DW$233, DW_AT_decl_file("/usr/lib/ti/pru-software-support-package/include/am335x/pr
    3424        .dwattr $C$DW$233, DW_AT_decl_line(0x171)
    3425        .dwattr $C$DW$233, DW_AT_decl_column(0x0d)
    3426$C$DW$234       .dwtag  DW_TAG_member
    3427        .dwattr $C$DW$234, DW_AT_type(*$C$DW$T$11)
    3428        .dwattr $C$DW$234, DW_AT_name("CH_MAP_22")
    3429        .dwattr $C$DW$234, DW_AT_TI_symbol_name("CH_MAP_22")
    3430        .dwattr $C$DW$234, DW_AT_bit_offset(0x0c), DW_AT_bit_size(0x04)
    3431        .dwattr $C$DW$234, DW_AT_data_member_location[DW_OP_plus_uconst 0x0]
    3432        .dwattr $C$DW$234, DW_AT_accessibility(DW_ACCESS_public)
    3433        .dwattr $C$DW$234, DW_AT_decl_file("/usr/lib/ti/pru-software-support-package/include/am335x/pr
    3434        .dwattr $C$DW$234, DW_AT_decl_line(0x172)
    3435        .dwattr $C$DW$234, DW_AT_decl_column(0x0d)
    3436$C$DW$235       .dwtag  DW_TAG_member
    3437        .dwattr $C$DW$235, DW_AT_type(*$C$DW$T$11)
    3438        .dwattr $C$DW$235, DW_AT_name("rsvd20")
    3439        .dwattr $C$DW$235, DW_AT_TI_symbol_name("rsvd20")
    3440        .dwattr $C$DW$235, DW_AT_bit_offset(0x08), DW_AT_bit_size(0x04)
    3441        .dwattr $C$DW$235, DW_AT_data_member_location[DW_OP_plus_uconst 0x0]
    3442        .dwattr $C$DW$235, DW_AT_accessibility(DW_ACCESS_public)
    3443        .dwattr $C$DW$235, DW_AT_decl_file("/usr/lib/ti/pru-software-support-package/include/am335x/pr
    3444        .dwattr $C$DW$235, DW_AT_decl_line(0x173)
    3445        .dwattr $C$DW$235, DW_AT_decl_column(0x0d)
    3446$C$DW$236       .dwtag  DW_TAG_member
PRU Assembler Unix v2.1.4 Sat Apr 14 23:23:22 2018

Tools Copyright (c) 2012-2015 Texas Instruments Incorporated
main1.asm                                                            PAGE   64

    3447        .dwattr $C$DW$236, DW_AT_type(*$C$DW$T$11)
    3448        .dwattr $C$DW$236, DW_AT_name("CH_MAP_23")
    3449        .dwattr $C$DW$236, DW_AT_TI_symbol_name("CH_MAP_23")
    3450        .dwattr $C$DW$236, DW_AT_bit_offset(0x04), DW_AT_bit_size(0x04)
    3451        .dwattr $C$DW$236, DW_AT_data_member_location[DW_OP_plus_uconst 0x0]
    3452        .dwattr $C$DW$236, DW_AT_accessibility(DW_ACCESS_public)
    3453        .dwattr $C$DW$236, DW_AT_decl_file("/usr/lib/ti/pru-software-support-package/include/am335x/pr
    3454        .dwattr $C$DW$236, DW_AT_decl_line(0x174)
    3455        .dwattr $C$DW$236, DW_AT_decl_column(0x0d)
    3456$C$DW$237       .dwtag  DW_TAG_member
    3457        .dwattr $C$DW$237, DW_AT_type(*$C$DW$T$11)
