PRU Assembler Unix v2.1.4 Fri Apr 13 06:28:55 2018

Tools Copyright (c) 2012-2015 Texas Instruments Incorporated
main.asm                                                             PAGE    1

       1;******************************************************************************
       2;* PRU C/C++ Codegen                                              Unix v2.1.4 *
       3;* Date/Time created: Fri Apr 13 06:28:54 2018                                *
       4;******************************************************************************
       5        .compiler_opts --abi=eabi --endian=little --hll_source=on --object_format=elf --silicon_versio
       6
       7$C$DW$CU        .dwtag  DW_TAG_compile_unit
       8        .dwattr $C$DW$CU, DW_AT_name("main.c")
       9        .dwattr $C$DW$CU, DW_AT_producer("TI PRU C/C++ Codegen Unix v2.1.4 Copyright (c) 2012-2015 Tex
      10        .dwattr $C$DW$CU, DW_AT_TI_version(0x01)
      11        .dwattr $C$DW$CU, DW_AT_comp_dir("/var/lib/cloud9/pru_detector")
      12        .global __PRU_CREG_PRU_CFG
      13        .global __PRU_CREG_PRU_INTC
      14
      15$C$DW$1 .dwtag  DW_TAG_subprogram, DW_AT_name("__delay_cycles")
      16        .dwattr $C$DW$1, DW_AT_TI_symbol_name("__delay_cycles")
      17        .dwattr $C$DW$1, DW_AT_declaration
      18        .dwattr $C$DW$1, DW_AT_external
      19$C$DW$2 .dwtag  DW_TAG_formal_parameter
      20        .dwattr $C$DW$2, DW_AT_type(*$C$DW$T$11)
      21        .dwendtag $C$DW$1
      22
      23
      24$C$DW$3 .dwtag  DW_TAG_subprogram, DW_AT_name("pru_rpmsg_init")
      25        .dwattr $C$DW$3, DW_AT_TI_symbol_name("pru_rpmsg_init")
      26        .dwattr $C$DW$3, DW_AT_type(*$C$DW$T$319)
      27        .dwattr $C$DW$3, DW_AT_declaration
      28        .dwattr $C$DW$3, DW_AT_external
      29        .dwattr $C$DW$3, DW_AT_decl_file("/usr/lib/ti/pru-software-support-package/include/pru_rpmsg.h
      30        .dwattr $C$DW$3, DW_AT_decl_line(0x8c)
      31        .dwattr $C$DW$3, DW_AT_decl_column(0x09)
      32$C$DW$4 .dwtag  DW_TAG_formal_parameter
      33        .dwattr $C$DW$4, DW_AT_type(*$C$DW$T$304)
      34$C$DW$5 .dwtag  DW_TAG_formal_parameter
      35        .dwattr $C$DW$5, DW_AT_type(*$C$DW$T$305)
      36$C$DW$6 .dwtag  DW_TAG_formal_parameter
      37        .dwattr $C$DW$6, DW_AT_type(*$C$DW$T$305)
      38$C$DW$7 .dwtag  DW_TAG_formal_parameter
      39        .dwattr $C$DW$7, DW_AT_type(*$C$DW$T$32)
      40$C$DW$8 .dwtag  DW_TAG_formal_parameter
      41        .dwattr $C$DW$8, DW_AT_type(*$C$DW$T$32)
      42        .dwendtag $C$DW$3
      43
      44
      45$C$DW$9 .dwtag  DW_TAG_subprogram, DW_AT_name("pru_rpmsg_receive")
      46        .dwattr $C$DW$9, DW_AT_TI_symbol_name("pru_rpmsg_receive")
      47        .dwattr $C$DW$9, DW_AT_type(*$C$DW$T$319)
      48        .dwattr $C$DW$9, DW_AT_declaration
      49        .dwattr $C$DW$9, DW_AT_external
      50        .dwattr $C$DW$9, DW_AT_decl_file("/usr/lib/ti/pru-software-support-package/include/pru_rpmsg.h
      51        .dwattr $C$DW$9, DW_AT_decl_line(0xb2)
      52        .dwattr $C$DW$9, DW_AT_decl_column(0x09)
      53$C$DW$10        .dwtag  DW_TAG_formal_parameter
      54        .dwattr $C$DW$10, DW_AT_type(*$C$DW$T$304)
      55$C$DW$11        .dwtag  DW_TAG_formal_parameter
PRU Assembler Unix v2.1.4 Fri Apr 13 06:28:55 2018

Tools Copyright (c) 2012-2015 Texas Instruments Incorporated
main.asm                                                             PAGE    2

      56        .dwattr $C$DW$11, DW_AT_type(*$C$DW$T$308)
      57$C$DW$12        .dwtag  DW_TAG_formal_parameter
      58        .dwattr $C$DW$12, DW_AT_type(*$C$DW$T$308)
      59$C$DW$13        .dwtag  DW_TAG_formal_parameter
      60        .dwattr $C$DW$13, DW_AT_type(*$C$DW$T$3)
      61$C$DW$14        .dwtag  DW_TAG_formal_parameter
      62        .dwattr $C$DW$14, DW_AT_type(*$C$DW$T$308)
      63        .dwendtag $C$DW$9
      64
      65
      66$C$DW$15        .dwtag  DW_TAG_subprogram, DW_AT_name("pru_rpmsg_send")
      67        .dwattr $C$DW$15, DW_AT_TI_symbol_name("pru_rpmsg_send")
      68        .dwattr $C$DW$15, DW_AT_type(*$C$DW$T$319)
      69        .dwattr $C$DW$15, DW_AT_declaration
      70        .dwattr $C$DW$15, DW_AT_external
      71        .dwattr $C$DW$15, DW_AT_decl_file("/usr/lib/ti/pru-software-support-package/include/pru_rpmsg.
      72        .dwattr $C$DW$15, DW_AT_decl_line(0xd8)
      73        .dwattr $C$DW$15, DW_AT_decl_column(0x09)
      74$C$DW$16        .dwtag  DW_TAG_formal_parameter
      75        .dwattr $C$DW$16, DW_AT_type(*$C$DW$T$304)
      76$C$DW$17        .dwtag  DW_TAG_formal_parameter
      77        .dwattr $C$DW$17, DW_AT_type(*$C$DW$T$32)
      78$C$DW$18        .dwtag  DW_TAG_formal_parameter
      79        .dwattr $C$DW$18, DW_AT_type(*$C$DW$T$32)
      80$C$DW$19        .dwtag  DW_TAG_formal_parameter
      81        .dwattr $C$DW$19, DW_AT_type(*$C$DW$T$3)
      82$C$DW$20        .dwtag  DW_TAG_formal_parameter
      83        .dwattr $C$DW$20, DW_AT_type(*$C$DW$T$264)
      84        .dwendtag $C$DW$15
      85
      86
      87$C$DW$21        .dwtag  DW_TAG_subprogram, DW_AT_name("pru_rpmsg_channel")
      88        .dwattr $C$DW$21, DW_AT_TI_symbol_name("pru_rpmsg_channel")
      89        .dwattr $C$DW$21, DW_AT_type(*$C$DW$T$319)
      90        .dwattr $C$DW$21, DW_AT_declaration
      91        .dwattr $C$DW$21, DW_AT_external
      92        .dwattr $C$DW$21, DW_AT_decl_file("/usr/lib/ti/pru-software-support-package/include/pru_rpmsg.
      93        .dwattr $C$DW$21, DW_AT_decl_line(0x104)
      94        .dwattr $C$DW$21, DW_AT_decl_column(0x09)
      95$C$DW$22        .dwtag  DW_TAG_formal_parameter
      96        .dwattr $C$DW$22, DW_AT_type(*$C$DW$T$313)
      97$C$DW$23        .dwtag  DW_TAG_formal_parameter
      98        .dwattr $C$DW$23, DW_AT_type(*$C$DW$T$304)
      99$C$DW$24        .dwtag  DW_TAG_formal_parameter
     100        .dwattr $C$DW$24, DW_AT_type(*$C$DW$T$315)
     101$C$DW$25        .dwtag  DW_TAG_formal_parameter
     102        .dwattr $C$DW$25, DW_AT_type(*$C$DW$T$315)
     103$C$DW$26        .dwtag  DW_TAG_formal_parameter
     104        .dwattr $C$DW$26, DW_AT_type(*$C$DW$T$316)
     105        .dwendtag $C$DW$21
     106
     107        .weak   ||CT_CFG||
     108 00000000                 ||CT_CFG||:     .usect  ".creg.PRU_CFG.noload.near",68,1
     109$C$DW$27        .dwtag  DW_TAG_variable, DW_AT_name("CT_CFG")
     110        .dwattr $C$DW$27, DW_AT_TI_symbol_name("CT_CFG")
PRU Assembler Unix v2.1.4 Fri Apr 13 06:28:55 2018

Tools Copyright (c) 2012-2015 Texas Instruments Incorporated
main.asm                                                             PAGE    3

     111        .dwattr $C$DW$27, DW_AT_location[DW_OP_addr ||CT_CFG||]
     112        .dwattr $C$DW$27, DW_AT_type(*$C$DW$T$291)
     113        .dwattr $C$DW$27, DW_AT_external
     114        .dwattr $C$DW$27, DW_AT_decl_file("/usr/lib/ti/pru-software-support-package/include/am335x/pru
     115        .dwattr $C$DW$27, DW_AT_decl_line(0xf2)
     116        .dwattr $C$DW$27, DW_AT_decl_column(0x17)
     117        .weak   ||CT_INTC||
     118 00000000                 ||CT_INTC||:    .usect  ".creg.PRU_INTC.noload.far",5380,1
     119$C$DW$28        .dwtag  DW_TAG_variable, DW_AT_name("CT_INTC")
     120        .dwattr $C$DW$28, DW_AT_TI_symbol_name("CT_INTC")
     121        .dwattr $C$DW$28, DW_AT_location[DW_OP_addr ||CT_INTC||]
     122        .dwattr $C$DW$28, DW_AT_type(*$C$DW$T$296)
     123        .dwattr $C$DW$28, DW_AT_external
     124        .dwattr $C$DW$28, DW_AT_decl_file("/usr/lib/ti/pru-software-support-package/include/am335x/pru
     125        .dwattr $C$DW$28, DW_AT_decl_line(0x389)
     126        .dwattr $C$DW$28, DW_AT_decl_column(0x18)
     127        .global ||pru_intc_map||
     128 00000000                         .sect   ".data:pru_intc_map", RW
     129        .clink
     130        .align  1
     131        .elfsym ||pru_intc_map||,SYM_SIZE(4)
     132 00000000                 ||pru_intc_map||:
     133 00000000 00000000000010          .bits   16,8                    ; pru_intc_map[0].evt @ 0
     134 00000000 00000000000210          .bits   2,8                     ; pru_intc_map[0].ch @ 8
     135 00000000 00000000110210          .bits   17,8                    ; pru_intc_map[1].evt @ 16
     136 00000000 00000000110210          .bits   0,8                     ; pru_intc_map[1].ch @ 24
     137
     138$C$DW$29        .dwtag  DW_TAG_variable, DW_AT_name("pru_intc_map")
     139        .dwattr $C$DW$29, DW_AT_TI_symbol_name("pru_intc_map")
     140        .dwattr $C$DW$29, DW_AT_location[DW_OP_addr ||pru_intc_map||]
     141        .dwattr $C$DW$29, DW_AT_type(*$C$DW$T$327)
     142        .dwattr $C$DW$29, DW_AT_external
     143        .dwattr $C$DW$29, DW_AT_decl_file("resource_table_0.h")
     144        .dwattr $C$DW$29, DW_AT_decl_line(0x3c)
     145        .dwattr $C$DW$29, DW_AT_decl_column(0x0f)
     146        .global ||resourceTable||
     147 00000000                         .sect   ".resource_table:retain", RW
     148        .retain
     149        .align  1
     150        .elfsym ||resourceTable||,SYM_SIZE(124)
     151 00000000                 ||resourceTable||:
     152 00000000 00000000000001          .bits   1,32                    ; resourceTable.base.ver @ 0
     153 00000004 00000000000002          .bits   2,32                    ; resourceTable.base.num @ 32
     154 00000008 00000000000000          .bits   0,32                    ; resourceTable.base.reserved[0] @ 64
     155 0000000c 00000000000000          .bits   0,32                    ; resourceTable.base.reserved[1] @ 96
     156 00000010 00000000000018          .bits   24,32                   ; resourceTable.offset[0] @ 128
     157 00000014 0000000000005C          .bits   92,32                   ; resourceTable.offset[1] @ 160
     158 00000018 00000000000003          .bits   3,32                    ; resourceTable.rpmsg_vdev.type @ 192
     159 0000001c 00000000000007          .bits   7,32                    ; resourceTable.rpmsg_vdev.id @ 224
     160 00000020 00000000000000          .bits   0,32                    ; resourceTable.rpmsg_vdev.notifyid @ 256
     161 00000024 00000000000001          .bits   1,32                    ; resourceTable.rpmsg_vdev.dfeatures @ 288
     162 00000028 00000000000000          .bits   0,32                    ; resourceTable.rpmsg_vdev.gfeatures @ 320
     163 0000002c 00000000000000          .bits   0,32                    ; resourceTable.rpmsg_vdev.config_len @ 352
     164 00000030 00000000000000          .bits   0,8                     ; resourceTable.rpmsg_vdev.status @ 384
     165 00000030 00000000000200          .bits   2,8                     ; resourceTable.rpmsg_vdev.num_of_vrings @ 392
PRU Assembler Unix v2.1.4 Fri Apr 13 06:28:55 2018

Tools Copyright (c) 2012-2015 Texas Instruments Incorporated
main.asm                                                             PAGE    4

     166 00000030 00000000000200          .bits   0,8                     ; resourceTable.rpmsg_vdev.reserved[0] @ 400
     167 00000030 00000000000200          .bits   0,8                     ; resourceTable.rpmsg_vdev.reserved[1] @ 408
     168 00000034 00000000000000          .bits   0,32                    ; resourceTable.rpmsg_vring0.da @ 416
     169 00000038 00000000000010          .bits   16,32                   ; resourceTable.rpmsg_vring0.align @ 448
     170 0000003c 00000000000010          .bits   16,32                   ; resourceTable.rpmsg_vring0.num @ 480
     171 00000040 00000000000000          .bits   0,32                    ; resourceTable.rpmsg_vring0.notifyid @ 512
     172 00000044 00000000000000          .bits   0,32                    ; resourceTable.rpmsg_vring0.reserved @ 544
     173 00000048 00000000000000          .bits   0,32                    ; resourceTable.rpmsg_vring1.da @ 576
     174 0000004c 00000000000010          .bits   16,32                   ; resourceTable.rpmsg_vring1.align @ 608
     175 00000050 00000000000010          .bits   16,32                   ; resourceTable.rpmsg_vring1.num @ 640
     176 00000054 00000000000000          .bits   0,32                    ; resourceTable.rpmsg_vring1.notifyid @ 672
     177 00000058 00000000000000          .bits   0,32                    ; resourceTable.rpmsg_vring1.reserved @ 704
     178 0000005c 00000000000005          .bits   5,32                    ; resourceTable.pru_ints.type @ 736
     179 00000060 00000000000001          .bits   1,32                    ; resourceTable.pru_ints.sub_type @ 768
     180 00000064 00000000000014          .bits   20,32                   ; resourceTable.pru_ints.rsc_size @ 800
     181 00000068 00000000000000          .bits   0,16                    ; resourceTable.pru_ints.rsc.pru_ints.version @ 832
     182 00000068 00000000000000          .bits   0,8                     ; resourceTable.pru_ints.rsc.pru_ints.channel_host[0] @ 848
     183 00000068 000000FF000000          .bits   255,8                   ; resourceTable.pru_ints.rsc.pru_ints.channel_host[1] @ 856
     184 0000006c 00000000000002          .bits   2,8                     ; resourceTable.pru_ints.rsc.pru_ints.channel_host[2] @ 864
     185 0000006c 0000000000FF02          .bits   255,8                   ; resourceTable.pru_ints.rsc.pru_ints.channel_host[3] @ 872
     186 0000006c 00000000FFFF02          .bits   255,8                   ; resourceTable.pru_ints.rsc.pru_ints.channel_host[4] @ 880
     187 0000006c 000000FFFFFF02          .bits   255,8                   ; resourceTable.pru_ints.rsc.pru_ints.channel_host[5] @ 888
     188 00000070 000000000000FF          .bits   255,8                   ; resourceTable.pru_ints.rsc.pru_ints.channel_host[6] @ 896
     189 00000070 0000000000FFFF          .bits   255,8                   ; resourceTable.pru_ints.rsc.pru_ints.channel_host[7] @ 904
     190 00000070 00000000FFFFFF          .bits   255,8                   ; resourceTable.pru_ints.rsc.pru_ints.channel_host[8] @ 912
     191 00000070 000000FFFFFFFF          .bits   255,8                   ; resourceTable.pru_ints.rsc.pru_ints.channel_host[9] @ 920
     192 00000074 00000000000002          .bits   2,32                    ; resourceTable.pru_ints.rsc.pru_ints.num_evts @ 928
     193 00000078 00000000000000!         .bits   ||pru_intc_map||,32             ; resourceTable.pru_ints.rsc.pru_ints.event_channel @ 
     194
     195$C$DW$30        .dwtag  DW_TAG_variable, DW_AT_name("resourceTable")
     196        .dwattr $C$DW$30, DW_AT_TI_symbol_name("resourceTable")
     197        .dwattr $C$DW$30, DW_AT_location[DW_OP_addr ||resourceTable||]
     198        .dwattr $C$DW$30, DW_AT_type(*$C$DW$T$272)
     199        .dwattr $C$DW$30, DW_AT_external
     200        .dwattr $C$DW$30, DW_AT_decl_file("resource_table_0.h")
     201        .dwattr $C$DW$30, DW_AT_decl_line(0x50)
     202        .dwattr $C$DW$30, DW_AT_decl_column(0x1a)
     203        .global ||payload||
     204        .common ||payload||,512,1
     205$C$DW$31        .dwtag  DW_TAG_variable, DW_AT_name("payload")
     206        .dwattr $C$DW$31, DW_AT_TI_symbol_name("payload")
     207        .dwattr $C$DW$31, DW_AT_location[DW_OP_addr ||payload||]
     208        .dwattr $C$DW$31, DW_AT_type(*$C$DW$T$303)
     209        .dwattr $C$DW$31, DW_AT_external
     210        .dwattr $C$DW$31, DW_AT_decl_file("main.c")
     211        .dwattr $C$DW$31, DW_AT_decl_line(0x4c)
     212        .dwattr $C$DW$31, DW_AT_decl_column(0x09)
     213;       optpru /tmp/03029IiFRNq /tmp/03029A59YsH 
     214;       acpiapru -@/tmp/030291SJ9F8 
     215 00000000                         .sect   ".text:main"
     216        .clink
     217        .global ||main||
     218
     219$C$DW$32        .dwtag  DW_TAG_subprogram, DW_AT_name("main")
     220        .dwattr $C$DW$32, DW_AT_low_pc(||main||)
PRU Assembler Unix v2.1.4 Fri Apr 13 06:28:55 2018

Tools Copyright (c) 2012-2015 Texas Instruments Incorporated
main.asm                                                             PAGE    5

     221        .dwattr $C$DW$32, DW_AT_high_pc(0x00)
     222        .dwattr $C$DW$32, DW_AT_TI_symbol_name("main")
     223        .dwattr $C$DW$32, DW_AT_external
     224        .dwattr $C$DW$32, DW_AT_TI_begin_file("main.c")
     225        .dwattr $C$DW$32, DW_AT_TI_begin_line(0x5a)
     226        .dwattr $C$DW$32, DW_AT_TI_begin_column(0x06)
     227        .dwattr $C$DW$32, DW_AT_decl_file("main.c")
     228        .dwattr $C$DW$32, DW_AT_decl_line(0x5a)
     229        .dwattr $C$DW$32, DW_AT_decl_column(0x06)
     230        .dwattr $C$DW$32, DW_AT_TI_max_frame_size(0x64)
     231        .dwpsn  file "main.c",line 91,column 1,is_stmt,address ||main||,isa 0
     232
     233        .dwfde $C$DW$CIE, ||main||
     234;----------------------------------------------------------------------
     235;  90 | void main(void)                                                        
     236;  92 | struct pru_rpmsg_transport transport;                                  
     237;  93 | uint16_t src, dst, len;                                                
     238;  94 | volatile uint8_t *status;                                              
     239;----------------------------------------------------------------------
     240
     241;***************************************************************
     242;* FNAME: main                          FR SIZE: 100           *
     243;*                                                             *
     244;* FUNCTION ENVIRONMENT                                        *
     245;*                                                             *
     246;* FUNCTION PROPERTIES                                         *
     247;*                           66 Auto, 34 SOE     *
     248;***************************************************************
     249
     250||main||:
     251;* --------------------------------------------------------------------------*
     252$C$DW$33        .dwtag  DW_TAG_variable, DW_AT_name("len")
     253        .dwattr $C$DW$33, DW_AT_TI_symbol_name("len")
     254        .dwattr $C$DW$33, DW_AT_type(*$C$DW$T$264)
     255        .dwattr $C$DW$33, DW_AT_location[DW_OP_breg8 0]
     256$C$DW$34        .dwtag  DW_TAG_variable, DW_AT_name("dst")
     257        .dwattr $C$DW$34, DW_AT_TI_symbol_name("dst")
     258        .dwattr $C$DW$34, DW_AT_type(*$C$DW$T$264)
     259        .dwattr $C$DW$34, DW_AT_location[DW_OP_breg8 2]
     260$C$DW$35        .dwtag  DW_TAG_variable, DW_AT_name("src")
     261        .dwattr $C$DW$35, DW_AT_TI_symbol_name("src")
     262        .dwattr $C$DW$35, DW_AT_type(*$C$DW$T$264)
     263        .dwattr $C$DW$35, DW_AT_location[DW_OP_breg8 4]
     264;* r11_0 assigned to $O$K62
     265;* r10_0 assigned to $O$K60
     266;* r8_0  assigned to $O$K55
     267;* r7_0  assigned to $O$K51
     268;* r6_0  assigned to $O$K46
     269;* r9_0  assigned to $O$K43
     270;* r4_0  assigned to $O$K38
     271;* r4_0  assigned to $O$K4
     272;* r0_0  assigned to $O$K12
     273$C$DW$36        .dwtag  DW_TAG_variable, DW_AT_name("transport")
     274        .dwattr $C$DW$36, DW_AT_TI_symbol_name("transport")
     275        .dwattr $C$DW$36, DW_AT_type(*$C$DW$T$273)
PRU Assembler Unix v2.1.4 Fri Apr 13 06:28:55 2018

Tools Copyright (c) 2012-2015 Texas Instruments Incorporated
main.asm                                                             PAGE    6

     276        .dwattr $C$DW$36, DW_AT_location[DW_OP_breg8 6]
     277        .dwcfi  cfa_offset, 0
     278 00000000 0000000564E2E2          SUB       r2, r2, 0x64          ; [ALU_PRU] 
     279        .dwcfi  cfa_offset, 100
     280        .dwpsn  file "main.c",line 97,column 2,is_stmt,isa 0
     281;----------------------------------------------------------------------
     282;  97 | CT_CFG.SYSCFG_bit.STANDBY_INIT = 0;                                    
     283;----------------------------------------------------------------------
     284 00000004 00000091042080!         LBCO      &r0, __PRU_CREG_PRU_CFG, $CSBREL(||CT_CFG||+4), 4 ; [ALU_PRU] |97| CT_CFG
     285 00000008 000000E54202C3          SBBO      &r3.b2, r2, 66, 34    ; [ALU_PRU] 
     286        .dwcfi  save_reg_to_mem, 14, -34
     287        .dwcfi  save_reg_to_mem, 15, -33
     288        .dwcfi  save_reg_to_mem, 16, -32
     289        .dwcfi  save_reg_to_mem, 17, -31
     290        .dwcfi  save_reg_to_mem, 18, -30
     291        .dwcfi  save_reg_to_mem, 19, -29
     292        .dwcfi  save_reg_to_mem, 20, -28
     293        .dwcfi  save_reg_to_mem, 21, -27
     294        .dwcfi  save_reg_to_mem, 22, -26
     295        .dwcfi  save_reg_to_mem, 23, -25
     296        .dwcfi  save_reg_to_mem, 24, -24
     297        .dwcfi  save_reg_to_mem, 25, -23
     298        .dwcfi  save_reg_to_mem, 26, -22
     299        .dwcfi  save_reg_to_mem, 27, -21
     300        .dwcfi  save_reg_to_mem, 28, -20
     301        .dwcfi  save_reg_to_mem, 29, -19
     302        .dwcfi  save_reg_to_mem, 30, -18
     303        .dwcfi  save_reg_to_mem, 31, -17
     304        .dwcfi  save_reg_to_mem, 32, -16
     305        .dwcfi  save_reg_to_mem, 33, -15
     306        .dwcfi  save_reg_to_mem, 34, -14
     307        .dwcfi  save_reg_to_mem, 35, -13
     308        .dwcfi  save_reg_to_mem, 36, -12
     309        .dwcfi  save_reg_to_mem, 37, -11
     310        .dwcfi  save_reg_to_mem, 38, -10
     311        .dwcfi  save_reg_to_mem, 39, -9
     312        .dwcfi  save_reg_to_mem, 40, -8
     313        .dwcfi  save_reg_to_mem, 41, -7
     314        .dwcfi  save_reg_to_mem, 42, -6
     315        .dwcfi  save_reg_to_mem, 43, -5
     316        .dwcfi  save_reg_to_mem, 44, -4
     317        .dwcfi  save_reg_to_mem, 45, -3
     318        .dwcfi  save_reg_to_mem, 46, -2
     319        .dwcfi  save_reg_to_mem, 47, -1
     320        .dwpsn  file "main.c",line 100,column 2,is_stmt,isa 0
     321;----------------------------------------------------------------------
     322; 100 | CT_INTC.SICR_bit.STS_CLR_IDX = FROM_ARM_HOST;                          
     323;----------------------------------------------------------------------
     324 0000000c 002484240000C4!         LDI32     r4, ||CT_INTC||+36    ; [ALU_PRU] |100| $O$K4,CT_INTC
     325        .dwpsn  file "main.c",line 97,column 2,is_stmt,isa 0
     326 00000014 0000001D04E0E0          CLR       r0, r0, 0x00000004    ; [ALU_PRU] |97| 
     327 00000018 00000081042080!         SBCO      &r0, __PRU_CREG_PRU_CFG, $CSBREL(||CT_CFG||+4), 4 ; [ALU_PRU] |97| CT_CFG
     328        .dwpsn  file "main.c",line 100,column 2,is_stmt,isa 0
     329;----------------------------------------------------------------------
     330; 103 | status = &resourceTable.rpmsg_vdev.status;                             
PRU Assembler Unix v2.1.4 Fri Apr 13 06:28:55 2018

Tools Copyright (c) 2012-2015 Texas Instruments Incorporated
main.asm                                                             PAGE    7

     331;----------------------------------------------------------------------
     332 0000001c FC008024FFFFC0          LDI32     r0, 0xfffffc00        ; [ALU_PRU] |100| 
     333 00000024 000000F1002481          LBBO      &r1, r4, 0, 4         ; [ALU_PRU] |100| $O$K4
     334 00000028 00000010E0E1E0          AND       r0, r1, r0            ; [ALU_PRU] |100| 
     335 0000002c 0000001311E0E0          OR        r0, r0, 0x11          ; [ALU_PRU] |100| 
     336 00000030 000000E1002480          SBBO      &r0, r4, 0, 4         ; [ALU_PRU] |100| $O$K4
     337 00000034 000000240000E0!         LDI       r0, ||resourceTable|| ; [ALU_PRU] $O$K12,resourceTable
     338;* --------------------------------------------------------------------------*
     339;*   BEGIN LOOP ||$C$L1||
     340;*
     341;*   Loop source line                : 104
     342;*   Loop closing brace source line  : 104
     343;*   Known Minimum Trip Count        : 1
     344;*   Known Maximum Trip Count        : 4294967295
     345;*   Known Max Trip Count Factor     : 1
     346;* --------------------------------------------------------------------------*
     347 00000038                 ||$C$L1||:    
     348        .dwpsn  file "main.c",line 104,column 9,is_stmt,isa 0
     349;----------------------------------------------------------------------
     350; 104 | while (!(*status & VIRTIO_CONFIG_S_DRIVER_OK));                        
     351;----------------------------------------------------------------------
     352 00000038 000000F1300001          LBBO      &r1.b0, r0, 48, 1     ; [ALU_PRU] |104| $O$K12
     353 0000003c 000000CF0201FF          QBBC      ||$C$L1||, r1.b0, 0x02 ; [ALU_PRU] |104| 
     354;* --------------------------------------------------------------------------*
     355        .dwpsn  file "main.c",line 107,column 2,is_stmt,isa 0
     356;----------------------------------------------------------------------
     357; 107 | pru_rpmsg_init(&transport, &resourceTable.rpmsg_vring0, &resourceTable.
     358;     | rpmsg_vring1, TO_ARM_HOST, FROM_ARM_HOST);                             
     359;----------------------------------------------------------------------
     360 00000040 0000000134E0EF          ADD       r15, r0, 0x34         ; [ALU_PRU] |107| $O$K12
     361 00000044 0000000106E2EE          ADD       r14, r2, 6            ; [ALU_PRU] |107| transport,transport
     362 00000048 000000240010F1          LDI       r17, 0x0010           ; [ALU_PRU] |107| 
     363 0000004c 000000240011F2          LDI       r18, 0x0011           ; [ALU_PRU] |107| 
     364 00000050 0000000148E0F0          ADD       r16, r0, 0x48         ; [ALU_PRU] |107| $O$K12
     365$C$DW$37        .dwtag  DW_TAG_TI_branch
     366        .dwattr $C$DW$37, DW_AT_low_pc(0x00)
     367        .dwattr $C$DW$37, DW_AT_name("pru_rpmsg_init")
     368        .dwattr $C$DW$37, DW_AT_TI_call
     369 00000054 000000230000C3!         JAL       r3.w2, ||pru_rpmsg_init|| ; [ALU_PRU] |107| pru_rpmsg_init
     370;* --------------------------------------------------------------------------*
     371;*   BEGIN LOOP ||$C$L2||
     372;*
     373;*   Loop source line                : 110
     374;*   Loop closing brace source line  : 110
     375;*   Known Minimum Trip Count        : 1
     376;*   Known Maximum Trip Count        : 4294967295
     377;*   Known Max Trip Count Factor     : 1
     378;* --------------------------------------------------------------------------*
     379 00000058                 ||$C$L2||:    
     380        .dwpsn  file "main.c",line 110,column 9,is_stmt,isa 0
     381;----------------------------------------------------------------------
     382; 110 | while (pru_rpmsg_channel(RPMSG_NS_CREATE, &transport, CHAN_NAME, CHAN_D
     383;     | ESC, CHAN_PORT) != PRU_RPMSG_SUCCESS);                                 
     384;----------------------------------------------------------------------
     385 00000058 0000002400000E          LDI       r14.b0, 0x00          ; [ALU_PRU] |110| 
PRU Assembler Unix v2.1.4 Fri Apr 13 06:28:55 2018

Tools Copyright (c) 2012-2015 Texas Instruments Incorporated
main.asm                                                             PAGE    8

     386 0000005c 0000000106E2EF          ADD       r15, r2, 6            ; [ALU_PRU] |110| transport,transport
     387 00000060 000090240000D0!         LDI32     r16, $C$SL1           ; [ALU_PRU] |110| 
     388 00000068 000091240000D1!         LDI32     r17, $C$SL2           ; [ALU_PRU] |110| 
     389 00000070 00000024001EF2          LDI       r18, 0x001e           ; [ALU_PRU] |110| 
     390$C$DW$38        .dwtag  DW_TAG_TI_branch
     391        .dwattr $C$DW$38, DW_AT_low_pc(0x00)
     392        .dwattr $C$DW$38, DW_AT_name("pru_rpmsg_channel")
     393        .dwattr $C$DW$38, DW_AT_TI_call
     394 00000074 000000230000C3!         JAL       r3.w2, ||pru_rpmsg_channel|| ; [ALU_PRU] |110| pru_rpmsg_channel
     395 00000078 0000006F008EF8          QBNE      ||$C$L2||, r14.w0, 0x00 ; [ALU_PRU] |110| 
     396;* --------------------------------------------------------------------------*
     397        .dwpsn  file "main.c",line 112,column 2,is_stmt,isa 0
     398;----------------------------------------------------------------------
     399; 112 | __R30 &= ~PRU0_GPIO;                                                   
     400; 114 | //Wait for message                                                     
     401;----------------------------------------------------------------------
     402 0000007c 0000001D02FEFE          CLR       r30, r30, 0x00000002  ; [ALU_PRU] |112| 
     403;* --------------------------------------------------------------------------*
     404;*   BEGIN LOOP ||$C$L3||
     405;*
     406;*   Loop source line                : 115
     407;*   Loop closing brace source line  : 115
     408;*   Known Minimum Trip Count        : 1
     409;*   Known Maximum Trip Count        : 4294967295
     410;*   Known Max Trip Count Factor     : 1
     411;* --------------------------------------------------------------------------*
     412 00000080                 ||$C$L3||:    
     413        .dwpsn  file "main.c",line 115,column 9,is_stmt,isa 0
     414;----------------------------------------------------------------------
     415; 115 | while (!(__R31 & HOST_INT));                                           
     416;----------------------------------------------------------------------
     417 00000080 000000C91EFF00          QBBC      ||$C$L3||, r31, 0x1e  ; [ALU_PRU] |115| 
     418;* --------------------------------------------------------------------------*
     419        .dwpsn  file "main.c",line 117,column 2,is_stmt,isa 0
     420;----------------------------------------------------------------------
     421; 117 | CT_INTC.SICR_bit.STS_CLR_IDX = FROM_ARM_HOST;                          
     422; 118 | //receive the start message                                            
     423;----------------------------------------------------------------------
     424 00000084 FC008024FFFFC0          LDI32     r0, 0xfffffc00        ; [ALU_PRU] |117| 
     425 0000008c 000000F1002481          LBBO      &r1, r4, 0, 4         ; [ALU_PRU] |117| $O$K4
     426 00000090 00000010E0E1E0          AND       r0, r1, r0            ; [ALU_PRU] |117| 
     427 00000094 0000001311E0E0          OR        r0, r0, 0x11          ; [ALU_PRU] |117| 
     428 00000098 000000E1002480          SBBO      &r0, r4, 0, 4         ; [ALU_PRU] |117| $O$K4
     429 0000009c 000000240000E4!         LDI       r4, ||payload||       ; [ALU_PRU] $O$K38,payload
     430;* --------------------------------------------------------------------------*
     431;*   BEGIN LOOP ||$C$L4||
     432;*
     433;*   Loop source line                : 119
     434;*   Loop closing brace source line  : 119
     435;*   Known Minimum Trip Count        : 1
     436;*   Known Maximum Trip Count        : 4294967295
     437;*   Known Max Trip Count Factor     : 1
     438;* --------------------------------------------------------------------------*
     439 000000a0                 ||$C$L4||:    
     440        .dwpsn  file "main.c",line 119,column 9,is_stmt,isa 0
PRU Assembler Unix v2.1.4 Fri Apr 13 06:28:55 2018

Tools Copyright (c) 2012-2015 Texas Instruments Incorporated
main.asm                                                             PAGE    9

     441;----------------------------------------------------------------------
     442; 119 | while (pru_rpmsg_receive(&transport, &src, &dst, payload, &len) != PRU_
     443;     | RPMSG_SUCCESS);                                                        
     444;----------------------------------------------------------------------
     445 000000a0 0000000106E2EE          ADD       r14, r2, 6            ; [ALU_PRU] |119| transport,transport
     446 000000a4 0000000104E2EF          ADD       r15, r2, 4            ; [ALU_PRU] |119| src,src
     447 000000a8 0000000102E2F0          ADD       r16, r2, 2            ; [ALU_PRU] |119| dst,dst
     448 000000ac 00000010E4E4F1          MOV       r17, r4               ; [ALU_PRU] |119| $O$K38
     449 000000b0 0000000100E2F2          ADD       r18, r2, 0            ; [ALU_PRU] |119| len,len
     450$C$DW$39        .dwtag  DW_TAG_TI_branch
     451        .dwattr $C$DW$39, DW_AT_low_pc(0x00)
     452        .dwattr $C$DW$39, DW_AT_name("pru_rpmsg_receive")
     453        .dwattr $C$DW$39, DW_AT_TI_call
     454 000000b4 000000230000C3!         JAL       r3.w2, ||pru_rpmsg_receive|| ; [ALU_PRU] |119| pru_rpmsg_receive
     455 000000b8 0000006F008EFA          QBNE      ||$C$L4||, r14.w0, 0x00 ; [ALU_PRU] |119| 
     456;* --------------------------------------------------------------------------*
     457        .dwpsn  file "main.c",line 121,column 2,is_stmt,isa 0
     458;----------------------------------------------------------------------
     459; 121 | payload[0] = 'H';                                                      
     460;----------------------------------------------------------------------
     461 000000bc 000000240048E9          LDI       r9, 0x0048            ; [ALU_PRU] |121| $O$K43
     462        .dwpsn  file "main.c",line 122,column 2,is_stmt,isa 0
     463;----------------------------------------------------------------------
     464; 122 | payload[1] = 'I';                                                      
     465;----------------------------------------------------------------------
     466 000000c0 000000240049E6          LDI       r6, 0x0049            ; [ALU_PRU] |122| $O$K46
     467        .dwpsn  file "main.c",line 123,column 2,is_stmt,isa 0
     468;----------------------------------------------------------------------
     469; 123 | payload[2] = '\n';                                                     
     470;----------------------------------------------------------------------
     471 000000c4 00000024000AE7          LDI       r7, 0x000a            ; [ALU_PRU] |123| $O$K51
     472        .dwpsn  file "main.c",line 124,column 2,is_stmt,isa 0
     473;----------------------------------------------------------------------
     474; 124 | payload[3] = 0;                                                        
     475; 125 | len = 4;                                                               
     476; 127 | while (1) {                                                            
     477; 131 | //      pollReceivers();                                               
     478; 133 |         //check for printout flags, if so print out respective sensor d
     479;     | ata                                                                    
     480; 135 |         //TODO determine loop timing                                   
     481; 136 | //      __delay_cycles(2000); //10us                                   
     482; 141 |         //if (__R31 & HOST_INT) {                                      
     483; 143 |         //      CT_INTC.SICR_bit.STS_CLR_IDX = FROM_ARM_HOST;          
     484; 145 |         //      while (pru_rpmsg_receive(&transport, &src, &dst, payloa
     485;     | d, &len) == PRU_RPMSG_SUCCESS) {                                       
     486; 147 | //                      payload[0] = 'H';                              
     487; 149 | // __R30 |= PRU0_GPIO;                                                 
     488;----------------------------------------------------------------------
     489 000000c8 0000002EFF8188          ZERO      &r8, 4                ; [ALU_PRU] |124| $O$K55
     490 000000cc 00000024004DEA          LDI       r10, 0x004d           ; [ALU_PRU] $O$K60
     491 000000d0 000000240031EB          LDI       r11, 0x0031           ; [ALU_PRU] $O$K62
     492;* --------------------------------------------------------------------------*
     493;*   BEGIN LOOP ||$C$L5||
     494;*
     495;*   Loop source line                : 127
PRU Assembler Unix v2.1.4 Fri Apr 13 06:28:55 2018

Tools Copyright (c) 2012-2015 Texas Instruments Incorporated
main.asm                                                             PAGE   10

     496;*   Loop closing brace source line  : 172
     497;*   Known Minimum Trip Count        : 1
     498;*   Known Maximum Trip Count        : 4294967295
     499;*   Known Max Trip Count Factor     : 1
     500;* --------------------------------------------------------------------------*
     501 000000d4                 ||$C$L5||:    
     502        .dwpsn  file "main.c",line 150,column 3,is_stmt,isa 0
     503;----------------------------------------------------------------------
     504; 150 | payload[0] = 'H';                                                      
     505;----------------------------------------------------------------------
     506 000000d4 000000E1000409          SBBO      &r9.b0, r4, 0, 1      ; [ALU_PRU] |150| $O$K38,$O$K43
     507        .dwpsn  file "main.c",line 151,column 2,is_stmt,isa 0
     508;----------------------------------------------------------------------
     509; 151 | payload[1] = 'I';                                                      
     510; 152 | payload[2] = '\n';                                                     
     511; 153 | payload[3] = 0;                                                        
     512;----------------------------------------------------------------------
     513 000000d8 000000E1010406          SBBO      &r6.b0, r4, 1, 1      ; [ALU_PRU] |151| $O$K38,$O$K46
     514        .dwpsn  file "main.c",line 154,column 2,is_stmt,isa 0
     515;----------------------------------------------------------------------
     516; 154 | len = 4;                                                               
     517;----------------------------------------------------------------------
     518 000000dc 00000024000480          LDI       r0.w0, 0x04           ; [ALU_PRU] |154| 
     519        .dwpsn  file "main.c",line 152,column 2,is_stmt,isa 0
     520 000000e0 000000E1020407          SBBO      &r7.b0, r4, 2, 1      ; [ALU_PRU] |152| $O$K38,$O$K51
     521        .dwpsn  file "main.c",line 155,column 5,is_stmt,isa 0
     522;----------------------------------------------------------------------
     523; 155 | pru_rpmsg_send(&transport, dst, src, payload, len);                    
     524;----------------------------------------------------------------------
     525 000000e4 0000000106E2EE          ADD       r14, r2, 6            ; [ALU_PRU] |155| transport,transport
     526 000000e8 00000010E4E4F1          MOV       r17, r4               ; [ALU_PRU] |155| $O$K38
     527 000000ec 00000024000492          LDI       r18.w0, 0x0004        ; [ALU_PRU] |155| 
     528        .dwpsn  file "main.c",line 153,column 2,is_stmt,isa 0
     529 000000f0 000000E1030408          SBBO      &r8.b0, r4, 3, 1      ; [ALU_PRU] |153| $O$K38,$O$K55
     530        .dwpsn  file "main.c",line 154,column 2,is_stmt,isa 0
     531 000000f4 000000E1000280          SBBO      &r0.w0, r2, 0, 2      ; [ALU_PRU] |154| len
     532        .dwpsn  file "main.c",line 155,column 5,is_stmt,isa 0
     533;----------------------------------------------------------------------
     534; 156 | //      __delay_cycles(10);                                            
     535; 157 | //__R30 &= ~PRU0_GPIO;                                                 
     536;----------------------------------------------------------------------
     537 000000f8 000000F1020280          LBBO      &r0.w0, r2, 2, 2      ; [ALU_PRU] |155| dst
     538 000000fc 000000108080EF          MOV       r15, r0.w0            ; [ALU_PRU] |155| 
     539 00000100 000000F1040280          LBBO      &r0.w0, r2, 4, 2      ; [ALU_PRU] |155| src
     540 00000104 000000108080F0          MOV       r16, r0.w0            ; [ALU_PRU] |155| 
     541$C$DW$40        .dwtag  DW_TAG_TI_branch
     542        .dwattr $C$DW$40, DW_AT_low_pc(0x00)
     543        .dwattr $C$DW$40, DW_AT_name("pru_rpmsg_send")
     544        .dwattr $C$DW$40, DW_AT_TI_call
     545 00000108 000000230000C3!         JAL       r3.w2, ||pru_rpmsg_send|| ; [ALU_PRU] |155| pru_rpmsg_send
     546        .dwpsn  file "main.c",line 158,column 4,is_stmt,isa 0
     547;----------------------------------------------------------------------
     548; 158 | payload[0] = 'I';                                                      
     549;----------------------------------------------------------------------
     550 0000010c 000000E1000406          SBBO      &r6.b0, r4, 0, 1      ; [ALU_PRU] |158| $O$K38,$O$K46
PRU Assembler Unix v2.1.4 Fri Apr 13 06:28:55 2018

Tools Copyright (c) 2012-2015 Texas Instruments Incorporated
main.asm                                                             PAGE   11

     551        .dwpsn  file "main.c",line 159,column 2,is_stmt,isa 0
     552;----------------------------------------------------------------------
     553; 159 | payload[1] = 'M';                                                      
     554; 160 | payload[2] = '1';                                                      
     555; 161 | payload[3] = '\n';                                                     
     556; 162 | payload[4] = 0;                                                        
     557;----------------------------------------------------------------------
     558 00000110 000000E101040A          SBBO      &r10.b0, r4, 1, 1     ; [ALU_PRU] |159| $O$K38,$O$K60
     559        .dwpsn  file "main.c",line 163,column 2,is_stmt,isa 0
     560;----------------------------------------------------------------------
     561; 163 | len = 5;                                                               
     562;----------------------------------------------------------------------
     563 00000114 00000024000580          LDI       r0.w0, 0x05           ; [ALU_PRU] |163| 
     564        .dwpsn  file "main.c",line 160,column 2,is_stmt,isa 0
     565 00000118 000000E102040B          SBBO      &r11.b0, r4, 2, 1     ; [ALU_PRU] |160| $O$K38,$O$K62
     566        .dwpsn  file "main.c",line 165,column 5,is_stmt,isa 0
     567;----------------------------------------------------------------------
     568; 165 | pru_rpmsg_send(&transport, dst, src, payload, len);                    
     569;----------------------------------------------------------------------
     570 0000011c 00000024000592          LDI       r18.w0, 0x0005        ; [ALU_PRU] |165| 
     571 00000120 0000000106E2EE          ADD       r14, r2, 6            ; [ALU_PRU] |165| transport,transport
     572 00000124 00000010E4E4F1          MOV       r17, r4               ; [ALU_PRU] |165| $O$K38
     573        .dwpsn  file "main.c",line 161,column 2,is_stmt,isa 0
     574 00000128 000000E1030407          SBBO      &r7.b0, r4, 3, 1      ; [ALU_PRU] |161| $O$K38,$O$K51
     575        .dwpsn  file "main.c",line 162,column 2,is_stmt,isa 0
     576 0000012c 000000E1040408          SBBO      &r8.b0, r4, 4, 1      ; [ALU_PRU] |162| $O$K38,$O$K55
     577        .dwpsn  file "main.c",line 163,column 2,is_stmt,isa 0
     578 00000130 000000E1000280          SBBO      &r0.w0, r2, 0, 2      ; [ALU_PRU] |163| len
     579        .dwpsn  file "main.c",line 165,column 5,is_stmt,isa 0
     580;----------------------------------------------------------------------
     581; 166 | // __R30 &= ~PRU0_GPIO;                                                
     582;----------------------------------------------------------------------
     583 00000134 000000F1020280          LBBO      &r0.w0, r2, 2, 2      ; [ALU_PRU] |165| dst
     584 00000138 000000108080EF          MOV       r15, r0.w0            ; [ALU_PRU] |165| 
     585 0000013c 000000F1040280          LBBO      &r0.w0, r2, 4, 2      ; [ALU_PRU] |165| src
     586 00000140 000000108080F0          MOV       r16, r0.w0            ; [ALU_PRU] |165| 
     587$C$DW$41        .dwtag  DW_TAG_TI_branch
     588        .dwattr $C$DW$41, DW_AT_low_pc(0x00)
     589        .dwattr $C$DW$41, DW_AT_name("pru_rpmsg_send")
     590        .dwattr $C$DW$41, DW_AT_TI_call
     591 00000144 000000230000C3!         JAL       r3.w2, ||pru_rpmsg_send|| ; [ALU_PRU] |165| pru_rpmsg_send
     592        .dwpsn  file "main.c",line 167,column 5,is_stmt,isa 0
     593;----------------------------------------------------------------------
     594; 167 | __delay_cycles(200000000);                                             
     595; 168 | //      }                                                              
     596; 169 | //}                                                                    
     597;----------------------------------------------------------------------
     598        .newblock
     599 00000148 E0FF852405F5C5          LDI32    r5, 99999999
     600 00000150 0000000501E5E5  $1:     SUB      r5, r5, 1
     601 00000154 0000006F00E5FF          QBNE     $1, r5, 0             ; [ALU_PRU] |167| 
     602        .dwpsn  file "main.c",line 127,column 9,is_stmt,isa 0
     603 00000158 00000021000000!         JMP       ||$C$L5||             ; [ALU_PRU] |127| 
     604;* --------------------------------------------------------------------------*
     605        .dwattr $C$DW$32, DW_AT_TI_end_file("main.c")
PRU Assembler Unix v2.1.4 Fri Apr 13 06:28:55 2018

Tools Copyright (c) 2012-2015 Texas Instruments Incorporated
main.asm                                                             PAGE   12

     606        .dwattr $C$DW$32, DW_AT_TI_end_line(0xad)
     607        .dwattr $C$DW$32, DW_AT_TI_end_column(0x01)
     608        .dwendentry
     609        .dwendtag $C$DW$32
     610
     611;******************************************************************************
     612;* STRINGS                                                                    *
     613;******************************************************************************
     614 00000000                         .sect   ".rodata:.string"
     615 00000000 00000000000072  ||$C$SL1||:     .string "rpmsg-pru",0
         00000001 00000000000070 
         00000002 0000000000006D 
         00000003 00000000000073 
         00000004 00000000000067 
         00000005 0000000000002D 
         00000006 00000000000070 
         00000007 00000000000072 
         00000008 00000000000075 
         00000009 00000000000000 
     616 0000000a 00000000000043  ||$C$SL2||:     .string "Channel 30",0
         0000000b 00000000000068 
         0000000c 00000000000061 
         0000000d 0000000000006E 
         0000000e 0000000000006E 
         0000000f 00000000000065 
         00000010 0000000000006C 
         00000011 00000000000020 
         00000012 00000000000033 
         00000013 00000000000030 
         00000014 00000000000000 
     617;*****************************************************************************
     618;* UNDEFINED EXTERNAL REFERENCES                                             *
     619;*****************************************************************************
     620        .global ||pru_rpmsg_init||
     621        .global ||pru_rpmsg_receive||
     622        .global ||pru_rpmsg_send||
     623        .global ||pru_rpmsg_channel||
     624
     625;******************************************************************************
     626;* TYPE INFORMATION                                                           *
     627;******************************************************************************
     628
     629$C$DW$T$19      .dwtag  DW_TAG_structure_type
     630        .dwattr $C$DW$T$19, DW_AT_byte_size(0x04)
     631$C$DW$42        .dwtag  DW_TAG_member
     632        .dwattr $C$DW$42, DW_AT_type(*$C$DW$T$11)
     633        .dwattr $C$DW$42, DW_AT_name("REVID")
     634        .dwattr $C$DW$42, DW_AT_TI_symbol_name("REVID")
     635        .dwattr $C$DW$42, DW_AT_bit_offset(0x00), DW_AT_bit_size(0x20)
     636        .dwattr $C$DW$42, DW_AT_data_member_location[DW_OP_plus_uconst 0x0]
     637        .dwattr $C$DW$42, DW_AT_accessibility(DW_ACCESS_public)
     638        .dwattr $C$DW$42, DW_AT_decl_file("/usr/lib/ti/pru-software-support-package/include/am335x/pru
     639        .dwattr $C$DW$42, DW_AT_decl_line(0x2d)
     640        .dwattr $C$DW$42, DW_AT_decl_column(0x0d)
     641        .dwendtag $C$DW$T$19
PRU Assembler Unix v2.1.4 Fri Apr 13 06:28:55 2018

Tools Copyright (c) 2012-2015 Texas Instruments Incorporated
main.asm                                                             PAGE   13

     642
     643        .dwattr $C$DW$T$19, DW_AT_decl_file("/usr/lib/ti/pru-software-support-package/include/am335x/p
     644        .dwattr $C$DW$T$19, DW_AT_decl_line(0x2c)
     645        .dwattr $C$DW$T$19, DW_AT_decl_column(0x13)
     646$C$DW$T$108     .dwtag  DW_TAG_volatile_type
     647        .dwattr $C$DW$T$108, DW_AT_type(*$C$DW$T$19)
     648
     649$C$DW$T$20      .dwtag  DW_TAG_structure_type
     650        .dwattr $C$DW$T$20, DW_AT_byte_size(0x04)
     651$C$DW$43        .dwtag  DW_TAG_member
     652        .dwattr $C$DW$43, DW_AT_type(*$C$DW$T$11)
     653        .dwattr $C$DW$43, DW_AT_name("IDLE_MODE")
     654        .dwattr $C$DW$43, DW_AT_TI_symbol_name("IDLE_MODE")
     655        .dwattr $C$DW$43, DW_AT_bit_offset(0x1e), DW_AT_bit_size(0x02)
     656        .dwattr $C$DW$43, DW_AT_data_member_location[DW_OP_plus_uconst 0x0]
     657        .dwattr $C$DW$43, DW_AT_accessibility(DW_ACCESS_public)
     658        .dwattr $C$DW$43, DW_AT_decl_file("/usr/lib/ti/pru-software-support-package/include/am335x/pru
     659        .dwattr $C$DW$43, DW_AT_decl_line(0x37)
     660        .dwattr $C$DW$43, DW_AT_decl_column(0x0d)
     661$C$DW$44        .dwtag  DW_TAG_member
     662        .dwattr $C$DW$44, DW_AT_type(*$C$DW$T$11)
     663        .dwattr $C$DW$44, DW_AT_name("STANDBY_MODE")
     664        .dwattr $C$DW$44, DW_AT_TI_symbol_name("STANDBY_MODE")
     665        .dwattr $C$DW$44, DW_AT_bit_offset(0x1c), DW_AT_bit_size(0x02)
     666        .dwattr $C$DW$44, DW_AT_data_member_location[DW_OP_plus_uconst 0x0]
     667        .dwattr $C$DW$44, DW_AT_accessibility(DW_ACCESS_public)
     668        .dwattr $C$DW$44, DW_AT_decl_file("/usr/lib/ti/pru-software-support-package/include/am335x/pru
     669        .dwattr $C$DW$44, DW_AT_decl_line(0x38)
     670        .dwattr $C$DW$44, DW_AT_decl_column(0x0d)
     671$C$DW$45        .dwtag  DW_TAG_member
     672        .dwattr $C$DW$45, DW_AT_type(*$C$DW$T$11)
     673        .dwattr $C$DW$45, DW_AT_name("STANDBY_INIT")
     674        .dwattr $C$DW$45, DW_AT_TI_symbol_name("STANDBY_INIT")
     675        .dwattr $C$DW$45, DW_AT_bit_offset(0x1b), DW_AT_bit_size(0x01)
     676        .dwattr $C$DW$45, DW_AT_data_member_location[DW_OP_plus_uconst 0x0]
     677        .dwattr $C$DW$45, DW_AT_accessibility(DW_ACCESS_public)
     678        .dwattr $C$DW$45, DW_AT_decl_file("/usr/lib/ti/pru-software-support-package/include/am335x/pru
     679        .dwattr $C$DW$45, DW_AT_decl_line(0x39)
     680        .dwattr $C$DW$45, DW_AT_decl_column(0x0d)
     681$C$DW$46        .dwtag  DW_TAG_member
     682        .dwattr $C$DW$46, DW_AT_type(*$C$DW$T$11)
     683        .dwattr $C$DW$46, DW_AT_name("SUB_MWAIT")
     684        .dwattr $C$DW$46, DW_AT_TI_symbol_name("SUB_MWAIT")
     685        .dwattr $C$DW$46, DW_AT_bit_offset(0x1a), DW_AT_bit_size(0x01)
     686        .dwattr $C$DW$46, DW_AT_data_member_location[DW_OP_plus_uconst 0x0]
     687        .dwattr $C$DW$46, DW_AT_accessibility(DW_ACCESS_public)
     688        .dwattr $C$DW$46, DW_AT_decl_file("/usr/lib/ti/pru-software-support-package/include/am335x/pru
     689        .dwattr $C$DW$46, DW_AT_decl_line(0x3a)
     690        .dwattr $C$DW$46, DW_AT_decl_column(0x0d)
     691$C$DW$47        .dwtag  DW_TAG_member
     692        .dwattr $C$DW$47, DW_AT_type(*$C$DW$T$11)
     693        .dwattr $C$DW$47, DW_AT_name("rsvd6")
     694        .dwattr $C$DW$47, DW_AT_TI_symbol_name("rsvd6")
     695        .dwattr $C$DW$47, DW_AT_bit_offset(0x00), DW_AT_bit_size(0x1a)
     696        .dwattr $C$DW$47, DW_AT_data_member_location[DW_OP_plus_uconst 0x0]
PRU Assembler Unix v2.1.4 Fri Apr 13 06:28:55 2018

Tools Copyright (c) 2012-2015 Texas Instruments Incorporated
main.asm                                                             PAGE   14

     697        .dwattr $C$DW$47, DW_AT_accessibility(DW_ACCESS_public)
     698        .dwattr $C$DW$47, DW_AT_decl_file("/usr/lib/ti/pru-software-support-package/include/am335x/pru
     699        .dwattr $C$DW$47, DW_AT_decl_line(0x3b)
     700        .dwattr $C$DW$47, DW_AT_decl_column(0x0d)
     701        .dwendtag $C$DW$T$20
     702
     703        .dwattr $C$DW$T$20, DW_AT_decl_file("/usr/lib/ti/pru-software-support-package/include/am335x/p
     704        .dwattr $C$DW$T$20, DW_AT_decl_line(0x36)
     705        .dwattr $C$DW$T$20, DW_AT_decl_column(0x13)
     706$C$DW$T$110     .dwtag  DW_TAG_volatile_type
     707        .dwattr $C$DW$T$110, DW_AT_type(*$C$DW$T$20)
     708
     709$C$DW$T$21      .dwtag  DW_TAG_structure_type
     710        .dwattr $C$DW$T$21, DW_AT_byte_size(0x04)
     711$C$DW$48        .dwtag  DW_TAG_member
     712        .dwattr $C$DW$48, DW_AT_type(*$C$DW$T$11)
     713        .dwattr $C$DW$48, DW_AT_name("PRU0_GPI_MODE")
     714        .dwattr $C$DW$48, DW_AT_TI_symbol_name("PRU0_GPI_MODE")
     715        .dwattr $C$DW$48, DW_AT_bit_offset(0x1e), DW_AT_bit_size(0x02)
     716        .dwattr $C$DW$48, DW_AT_data_member_location[DW_OP_plus_uconst 0x0]
     717        .dwattr $C$DW$48, DW_AT_accessibility(DW_ACCESS_public)
     718        .dwattr $C$DW$48, DW_AT_decl_file("/usr/lib/ti/pru-software-support-package/include/am335x/pru
     719        .dwattr $C$DW$48, DW_AT_decl_line(0x45)
     720        .dwattr $C$DW$48, DW_AT_decl_column(0x0d)
     721$C$DW$49        .dwtag  DW_TAG_member
     722        .dwattr $C$DW$49, DW_AT_type(*$C$DW$T$11)
     723        .dwattr $C$DW$49, DW_AT_name("PRU0_GPI_CLK_MODE")
     724        .dwattr $C$DW$49, DW_AT_TI_symbol_name("PRU0_GPI_CLK_MODE")
     725        .dwattr $C$DW$49, DW_AT_bit_offset(0x1d), DW_AT_bit_size(0x01)
     726        .dwattr $C$DW$49, DW_AT_data_member_location[DW_OP_plus_uconst 0x0]
     727        .dwattr $C$DW$49, DW_AT_accessibility(DW_ACCESS_public)
     728        .dwattr $C$DW$49, DW_AT_decl_file("/usr/lib/ti/pru-software-support-package/include/am335x/pru
     729        .dwattr $C$DW$49, DW_AT_decl_line(0x46)
     730        .dwattr $C$DW$49, DW_AT_decl_column(0x0d)
     731$C$DW$50        .dwtag  DW_TAG_member
     732        .dwattr $C$DW$50, DW_AT_type(*$C$DW$T$11)
     733        .dwattr $C$DW$50, DW_AT_name("PRU0_GPI_DIV0")
     734        .dwattr $C$DW$50, DW_AT_TI_symbol_name("PRU0_GPI_DIV0")
     735        .dwattr $C$DW$50, DW_AT_bit_offset(0x18), DW_AT_bit_size(0x05)
     736        .dwattr $C$DW$50, DW_AT_data_member_location[DW_OP_plus_uconst 0x0]
     737        .dwattr $C$DW$50, DW_AT_accessibility(DW_ACCESS_public)
     738        .dwattr $C$DW$50, DW_AT_decl_file("/usr/lib/ti/pru-software-support-package/include/am335x/pru
     739        .dwattr $C$DW$50, DW_AT_decl_line(0x47)
     740        .dwattr $C$DW$50, DW_AT_decl_column(0x0d)
     741$C$DW$51        .dwtag  DW_TAG_member
     742        .dwattr $C$DW$51, DW_AT_type(*$C$DW$T$11)
     743        .dwattr $C$DW$51, DW_AT_name("PRU0_GPI_DIV1")
     744        .dwattr $C$DW$51, DW_AT_TI_symbol_name("PRU0_GPI_DIV1")
     745        .dwattr $C$DW$51, DW_AT_bit_offset(0x13), DW_AT_bit_size(0x05)
     746        .dwattr $C$DW$51, DW_AT_data_member_location[DW_OP_plus_uconst 0x0]
     747        .dwattr $C$DW$51, DW_AT_accessibility(DW_ACCESS_public)
     748        .dwattr $C$DW$51, DW_AT_decl_file("/usr/lib/ti/pru-software-support-package/include/am335x/pru
     749        .dwattr $C$DW$51, DW_AT_decl_line(0x48)
     750        .dwattr $C$DW$51, DW_AT_decl_column(0x0d)
     751$C$DW$52        .dwtag  DW_TAG_member
PRU Assembler Unix v2.1.4 Fri Apr 13 06:28:55 2018

Tools Copyright (c) 2012-2015 Texas Instruments Incorporated
main.asm                                                             PAGE   15

     752        .dwattr $C$DW$52, DW_AT_type(*$C$DW$T$11)
     753        .dwattr $C$DW$52, DW_AT_name("PRU0_GPI_SB")
     754        .dwattr $C$DW$52, DW_AT_TI_symbol_name("PRU0_GPI_SB")
     755        .dwattr $C$DW$52, DW_AT_bit_offset(0x12), DW_AT_bit_size(0x01)
     756        .dwattr $C$DW$52, DW_AT_data_member_location[DW_OP_plus_uconst 0x0]
     757        .dwattr $C$DW$52, DW_AT_accessibility(DW_ACCESS_public)
     758        .dwattr $C$DW$52, DW_AT_decl_file("/usr/lib/ti/pru-software-support-package/include/am335x/pru
     759        .dwattr $C$DW$52, DW_AT_decl_line(0x49)
     760        .dwattr $C$DW$52, DW_AT_decl_column(0x0d)
     761$C$DW$53        .dwtag  DW_TAG_member
     762        .dwattr $C$DW$53, DW_AT_type(*$C$DW$T$11)
     763        .dwattr $C$DW$53, DW_AT_name("PRU0_GPO_MODE")
     764        .dwattr $C$DW$53, DW_AT_TI_symbol_name("PRU0_GPO_MODE")
     765        .dwattr $C$DW$53, DW_AT_bit_offset(0x11), DW_AT_bit_size(0x01)
     766        .dwattr $C$DW$53, DW_AT_data_member_location[DW_OP_plus_uconst 0x0]
     767        .dwattr $C$DW$53, DW_AT_accessibility(DW_ACCESS_public)
     768        .dwattr $C$DW$53, DW_AT_decl_file("/usr/lib/ti/pru-software-support-package/include/am335x/pru
     769        .dwattr $C$DW$53, DW_AT_decl_line(0x4a)
     770        .dwattr $C$DW$53, DW_AT_decl_column(0x0d)
     771$C$DW$54        .dwtag  DW_TAG_member
     772        .dwattr $C$DW$54, DW_AT_type(*$C$DW$T$11)
     773        .dwattr $C$DW$54, DW_AT_name("PRU0_GPO_DIV0")
     774        .dwattr $C$DW$54, DW_AT_TI_symbol_name("PRU0_GPO_DIV0")
     775        .dwattr $C$DW$54, DW_AT_bit_offset(0x0c), DW_AT_bit_size(0x05)
     776        .dwattr $C$DW$54, DW_AT_data_member_location[DW_OP_plus_uconst 0x0]
     777        .dwattr $C$DW$54, DW_AT_accessibility(DW_ACCESS_public)
     778        .dwattr $C$DW$54, DW_AT_decl_file("/usr/lib/ti/pru-software-support-package/include/am335x/pru
     779        .dwattr $C$DW$54, DW_AT_decl_line(0x4b)
     780        .dwattr $C$DW$54, DW_AT_decl_column(0x0d)
     781$C$DW$55        .dwtag  DW_TAG_member
     782        .dwattr $C$DW$55, DW_AT_type(*$C$DW$T$11)
     783        .dwattr $C$DW$55, DW_AT_name("PRU0_GPO_DIV1")
     784        .dwattr $C$DW$55, DW_AT_TI_symbol_name("PRU0_GPO_DIV1")
     785        .dwattr $C$DW$55, DW_AT_bit_offset(0x07), DW_AT_bit_size(0x05)
     786        .dwattr $C$DW$55, DW_AT_data_member_location[DW_OP_plus_uconst 0x0]
     787        .dwattr $C$DW$55, DW_AT_accessibility(DW_ACCESS_public)
     788        .dwattr $C$DW$55, DW_AT_decl_file("/usr/lib/ti/pru-software-support-package/include/am335x/pru
     789        .dwattr $C$DW$55, DW_AT_decl_line(0x4c)
     790        .dwattr $C$DW$55, DW_AT_decl_column(0x0d)
     791$C$DW$56        .dwtag  DW_TAG_member
     792        .dwattr $C$DW$56, DW_AT_type(*$C$DW$T$11)
     793        .dwattr $C$DW$56, DW_AT_name("PRU0_GPO_SH_SEL")
     794        .dwattr $C$DW$56, DW_AT_TI_symbol_name("PRU0_GPO_SH_SEL")
     795        .dwattr $C$DW$56, DW_AT_bit_offset(0x06), DW_AT_bit_size(0x01)
     796        .dwattr $C$DW$56, DW_AT_data_member_location[DW_OP_plus_uconst 0x0]
     797        .dwattr $C$DW$56, DW_AT_accessibility(DW_ACCESS_public)
     798        .dwattr $C$DW$56, DW_AT_decl_file("/usr/lib/ti/pru-software-support-package/include/am335x/pru
     799        .dwattr $C$DW$56, DW_AT_decl_line(0x4d)
     800        .dwattr $C$DW$56, DW_AT_decl_column(0x0d)
     801$C$DW$57        .dwtag  DW_TAG_member
     802        .dwattr $C$DW$57, DW_AT_type(*$C$DW$T$11)
     803        .dwattr $C$DW$57, DW_AT_name("rsvd26")
     804        .dwattr $C$DW$57, DW_AT_TI_symbol_name("rsvd26")
     805        .dwattr $C$DW$57, DW_AT_bit_offset(0x00), DW_AT_bit_size(0x06)
     806        .dwattr $C$DW$57, DW_AT_data_member_location[DW_OP_plus_uconst 0x0]
PRU Assembler Unix v2.1.4 Fri Apr 13 06:28:55 2018

Tools Copyright (c) 2012-2015 Texas Instruments Incorporated
main.asm                                                             PAGE   16

     807        .dwattr $C$DW$57, DW_AT_accessibility(DW_ACCESS_public)
     808        .dwattr $C$DW$57, DW_AT_decl_file("/usr/lib/ti/pru-software-support-package/include/am335x/pru
     809        .dwattr $C$DW$57, DW_AT_decl_line(0x4e)
     810        .dwattr $C$DW$57, DW_AT_decl_column(0x0d)
     811        .dwendtag $C$DW$T$21
     812
     813        .dwattr $C$DW$T$21, DW_AT_decl_file("/usr/lib/ti/pru-software-support-package/include/am335x/p
     814        .dwattr $C$DW$T$21, DW_AT_decl_line(0x44)
     815        .dwattr $C$DW$T$21, DW_AT_decl_column(0x13)
     816$C$DW$T$112     .dwtag  DW_TAG_volatile_type
     817        .dwattr $C$DW$T$112, DW_AT_type(*$C$DW$T$21)
     818
     819$C$DW$T$22      .dwtag  DW_TAG_structure_type
     820        .dwattr $C$DW$T$22, DW_AT_byte_size(0x04)
     821$C$DW$58        .dwtag  DW_TAG_member
     822        .dwattr $C$DW$58, DW_AT_type(*$C$DW$T$11)
     823        .dwattr $C$DW$58, DW_AT_name("PRU1_GPI_MODE")
     824        .dwattr $C$DW$58, DW_AT_TI_symbol_name("PRU1_GPI_MODE")
     825        .dwattr $C$DW$58, DW_AT_bit_offset(0x1e), DW_AT_bit_size(0x02)
     826        .dwattr $C$DW$58, DW_AT_data_member_location[DW_OP_plus_uconst 0x0]
     827        .dwattr $C$DW$58, DW_AT_accessibility(DW_ACCESS_public)
     828        .dwattr $C$DW$58, DW_AT_decl_file("/usr/lib/ti/pru-software-support-package/include/am335x/pru
     829        .dwattr $C$DW$58, DW_AT_decl_line(0x58)
     830        .dwattr $C$DW$58, DW_AT_decl_column(0x0d)
     831$C$DW$59        .dwtag  DW_TAG_member
     832        .dwattr $C$DW$59, DW_AT_type(*$C$DW$T$11)
     833        .dwattr $C$DW$59, DW_AT_name("PRU1_GPI_CLK_MODE")
     834        .dwattr $C$DW$59, DW_AT_TI_symbol_name("PRU1_GPI_CLK_MODE")
     835        .dwattr $C$DW$59, DW_AT_bit_offset(0x1d), DW_AT_bit_size(0x01)
     836        .dwattr $C$DW$59, DW_AT_data_member_location[DW_OP_plus_uconst 0x0]
     837        .dwattr $C$DW$59, DW_AT_accessibility(DW_ACCESS_public)
     838        .dwattr $C$DW$59, DW_AT_decl_file("/usr/lib/ti/pru-software-support-package/include/am335x/pru
     839        .dwattr $C$DW$59, DW_AT_decl_line(0x59)
     840        .dwattr $C$DW$59, DW_AT_decl_column(0x0d)
     841$C$DW$60        .dwtag  DW_TAG_member
     842        .dwattr $C$DW$60, DW_AT_type(*$C$DW$T$11)
     843        .dwattr $C$DW$60, DW_AT_name("PRU1_GPI_DIV0")
     844        .dwattr $C$DW$60, DW_AT_TI_symbol_name("PRU1_GPI_DIV0")
     845        .dwattr $C$DW$60, DW_AT_bit_offset(0x18), DW_AT_bit_size(0x05)
     846        .dwattr $C$DW$60, DW_AT_data_member_location[DW_OP_plus_uconst 0x0]
     847        .dwattr $C$DW$60, DW_AT_accessibility(DW_ACCESS_public)
     848        .dwattr $C$DW$60, DW_AT_decl_file("/usr/lib/ti/pru-software-support-package/include/am335x/pru
     849        .dwattr $C$DW$60, DW_AT_decl_line(0x5a)
     850        .dwattr $C$DW$60, DW_AT_decl_column(0x0d)
     851$C$DW$61        .dwtag  DW_TAG_member
     852        .dwattr $C$DW$61, DW_AT_type(*$C$DW$T$11)
     853        .dwattr $C$DW$61, DW_AT_name("PRU1_GPI_DIV1")
     854        .dwattr $C$DW$61, DW_AT_TI_symbol_name("PRU1_GPI_DIV1")
     855        .dwattr $C$DW$61, DW_AT_bit_offset(0x13), DW_AT_bit_size(0x05)
     856        .dwattr $C$DW$61, DW_AT_data_member_location[DW_OP_plus_uconst 0x0]
     857        .dwattr $C$DW$61, DW_AT_accessibility(DW_ACCESS_public)
     858        .dwattr $C$DW$61, DW_AT_decl_file("/usr/lib/ti/pru-software-support-package/include/am335x/pru
     859        .dwattr $C$DW$61, DW_AT_decl_line(0x5b)
     860        .dwattr $C$DW$61, DW_AT_decl_column(0x0d)
     861$C$DW$62        .dwtag  DW_TAG_member
PRU Assembler Unix v2.1.4 Fri Apr 13 06:28:55 2018

Tools Copyright (c) 2012-2015 Texas Instruments Incorporated
main.asm                                                             PAGE   17

     862        .dwattr $C$DW$62, DW_AT_type(*$C$DW$T$11)
     863        .dwattr $C$DW$62, DW_AT_name("PRU1_GPI_SB")
     864        .dwattr $C$DW$62, DW_AT_TI_symbol_name("PRU1_GPI_SB")
     865        .dwattr $C$DW$62, DW_AT_bit_offset(0x12), DW_AT_bit_size(0x01)
     866        .dwattr $C$DW$62, DW_AT_data_member_location[DW_OP_plus_uconst 0x0]
     867        .dwattr $C$DW$62, DW_AT_accessibility(DW_ACCESS_public)
     868        .dwattr $C$DW$62, DW_AT_decl_file("/usr/lib/ti/pru-software-support-package/include/am335x/pru
     869        .dwattr $C$DW$62, DW_AT_decl_line(0x5c)
     870        .dwattr $C$DW$62, DW_AT_decl_column(0x0d)
     871$C$DW$63        .dwtag  DW_TAG_member
     872        .dwattr $C$DW$63, DW_AT_type(*$C$DW$T$11)
     873        .dwattr $C$DW$63, DW_AT_name("PRU1_GPO_MODE")
     874        .dwattr $C$DW$63, DW_AT_TI_symbol_name("PRU1_GPO_MODE")
     875        .dwattr $C$DW$63, DW_AT_bit_offset(0x11), DW_AT_bit_size(0x01)
     876        .dwattr $C$DW$63, DW_AT_data_member_location[DW_OP_plus_uconst 0x0]
     877        .dwattr $C$DW$63, DW_AT_accessibility(DW_ACCESS_public)
     878        .dwattr $C$DW$63, DW_AT_decl_file("/usr/lib/ti/pru-software-support-package/include/am335x/pru
     879        .dwattr $C$DW$63, DW_AT_decl_line(0x5d)
     880        .dwattr $C$DW$63, DW_AT_decl_column(0x0d)
     881$C$DW$64        .dwtag  DW_TAG_member
     882        .dwattr $C$DW$64, DW_AT_type(*$C$DW$T$11)
     883        .dwattr $C$DW$64, DW_AT_name("PRU1_GPO_DIV0")
     884        .dwattr $C$DW$64, DW_AT_TI_symbol_name("PRU1_GPO_DIV0")
     885        .dwattr $C$DW$64, DW_AT_bit_offset(0x0c), DW_AT_bit_size(0x05)
     886        .dwattr $C$DW$64, DW_AT_data_member_location[DW_OP_plus_uconst 0x0]
     887        .dwattr $C$DW$64, DW_AT_accessibility(DW_ACCESS_public)
     888        .dwattr $C$DW$64, DW_AT_decl_file("/usr/lib/ti/pru-software-support-package/include/am335x/pru
     889        .dwattr $C$DW$64, DW_AT_decl_line(0x5e)
     890        .dwattr $C$DW$64, DW_AT_decl_column(0x0d)
     891$C$DW$65        .dwtag  DW_TAG_member
     892        .dwattr $C$DW$65, DW_AT_type(*$C$DW$T$11)
     893        .dwattr $C$DW$65, DW_AT_name("PRU1_GPO_DIV1")
     894        .dwattr $C$DW$65, DW_AT_TI_symbol_name("PRU1_GPO_DIV1")
     895        .dwattr $C$DW$65, DW_AT_bit_offset(0x07), DW_AT_bit_size(0x05)
     896        .dwattr $C$DW$65, DW_AT_data_member_location[DW_OP_plus_uconst 0x0]
     897        .dwattr $C$DW$65, DW_AT_accessibility(DW_ACCESS_public)
     898        .dwattr $C$DW$65, DW_AT_decl_file("/usr/lib/ti/pru-software-support-package/include/am335x/pru
     899        .dwattr $C$DW$65, DW_AT_decl_line(0x5f)
     900        .dwattr $C$DW$65, DW_AT_decl_column(0x0d)
     901$C$DW$66        .dwtag  DW_TAG_member
     902        .dwattr $C$DW$66, DW_AT_type(*$C$DW$T$11)
     903        .dwattr $C$DW$66, DW_AT_name("PRU1_GPO_SH_SEL")
     904        .dwattr $C$DW$66, DW_AT_TI_symbol_name("PRU1_GPO_SH_SEL")
     905        .dwattr $C$DW$66, DW_AT_bit_offset(0x06), DW_AT_bit_size(0x01)
     906        .dwattr $C$DW$66, DW_AT_data_member_location[DW_OP_plus_uconst 0x0]
     907        .dwattr $C$DW$66, DW_AT_accessibility(DW_ACCESS_public)
     908        .dwattr $C$DW$66, DW_AT_decl_file("/usr/lib/ti/pru-software-support-package/include/am335x/pru
     909        .dwattr $C$DW$66, DW_AT_decl_line(0x60)
     910        .dwattr $C$DW$66, DW_AT_decl_column(0x0d)
     911$C$DW$67        .dwtag  DW_TAG_member
     912        .dwattr $C$DW$67, DW_AT_type(*$C$DW$T$11)
     913        .dwattr $C$DW$67, DW_AT_name("rsvd26")
     914        .dwattr $C$DW$67, DW_AT_TI_symbol_name("rsvd26")
     915        .dwattr $C$DW$67, DW_AT_bit_offset(0x00), DW_AT_bit_size(0x06)
     916        .dwattr $C$DW$67, DW_AT_data_member_location[DW_OP_plus_uconst 0x0]
PRU Assembler Unix v2.1.4 Fri Apr 13 06:28:55 2018

Tools Copyright (c) 2012-2015 Texas Instruments Incorporated
main.asm                                                             PAGE   18

     917        .dwattr $C$DW$67, DW_AT_accessibility(DW_ACCESS_public)
     918        .dwattr $C$DW$67, DW_AT_decl_file("/usr/lib/ti/pru-software-support-package/include/am335x/pru
     919        .dwattr $C$DW$67, DW_AT_decl_line(0x61)
     920        .dwattr $C$DW$67, DW_AT_decl_column(0x0d)
     921        .dwendtag $C$DW$T$22
     922
     923        .dwattr $C$DW$T$22, DW_AT_decl_file("/usr/lib/ti/pru-software-support-package/include/am335x/p
     924        .dwattr $C$DW$T$22, DW_AT_decl_line(0x57)
     925        .dwattr $C$DW$T$22, DW_AT_decl_column(0x13)
     926$C$DW$T$114     .dwtag  DW_TAG_volatile_type
     927        .dwattr $C$DW$T$114, DW_AT_type(*$C$DW$T$22)
     928
     929$C$DW$T$23      .dwtag  DW_TAG_structure_type
     930        .dwattr $C$DW$T$23, DW_AT_byte_size(0x04)
     931$C$DW$68        .dwtag  DW_TAG_member
     932        .dwattr $C$DW$68, DW_AT_type(*$C$DW$T$11)
     933        .dwattr $C$DW$68, DW_AT_name("PRU0_CLK_STOP_REQ")
     934        .dwattr $C$DW$68, DW_AT_TI_symbol_name("PRU0_CLK_STOP_REQ")
     935        .dwattr $C$DW$68, DW_AT_bit_offset(0x1f), DW_AT_bit_size(0x01)
     936        .dwattr $C$DW$68, DW_AT_data_member_location[DW_OP_plus_uconst 0x0]
     937        .dwattr $C$DW$68, DW_AT_accessibility(DW_ACCESS_public)
     938        .dwattr $C$DW$68, DW_AT_decl_file("/usr/lib/ti/pru-software-support-package/include/am335x/pru
     939        .dwattr $C$DW$68, DW_AT_decl_line(0x6b)
     940        .dwattr $C$DW$68, DW_AT_decl_column(0x0d)
     941$C$DW$69        .dwtag  DW_TAG_member
     942        .dwattr $C$DW$69, DW_AT_type(*$C$DW$T$11)
     943        .dwattr $C$DW$69, DW_AT_name("PRU0_CLK_STOP_ACK")
     944        .dwattr $C$DW$69, DW_AT_TI_symbol_name("PRU0_CLK_STOP_ACK")
     945        .dwattr $C$DW$69, DW_AT_bit_offset(0x1e), DW_AT_bit_size(0x01)
     946        .dwattr $C$DW$69, DW_AT_data_member_location[DW_OP_plus_uconst 0x0]
     947        .dwattr $C$DW$69, DW_AT_accessibility(DW_ACCESS_public)
     948        .dwattr $C$DW$69, DW_AT_decl_file("/usr/lib/ti/pru-software-support-package/include/am335x/pru
     949        .dwattr $C$DW$69, DW_AT_decl_line(0x6c)
     950        .dwattr $C$DW$69, DW_AT_decl_column(0x0d)
     951$C$DW$70        .dwtag  DW_TAG_member
     952        .dwattr $C$DW$70, DW_AT_type(*$C$DW$T$11)
     953        .dwattr $C$DW$70, DW_AT_name("PRU0_CLK_EN")
     954        .dwattr $C$DW$70, DW_AT_TI_symbol_name("PRU0_CLK_EN")
     955        .dwattr $C$DW$70, DW_AT_bit_offset(0x1d), DW_AT_bit_size(0x01)
     956        .dwattr $C$DW$70, DW_AT_data_member_location[DW_OP_plus_uconst 0x0]
     957        .dwattr $C$DW$70, DW_AT_accessibility(DW_ACCESS_public)
     958        .dwattr $C$DW$70, DW_AT_decl_file("/usr/lib/ti/pru-software-support-package/include/am335x/pru
     959        .dwattr $C$DW$70, DW_AT_decl_line(0x6d)
     960        .dwattr $C$DW$70, DW_AT_decl_column(0x0d)
     961$C$DW$71        .dwtag  DW_TAG_member
     962        .dwattr $C$DW$71, DW_AT_type(*$C$DW$T$11)
     963        .dwattr $C$DW$71, DW_AT_name("PRU1_CLK_STOP_REQ")
     964        .dwattr $C$DW$71, DW_AT_TI_symbol_name("PRU1_CLK_STOP_REQ")
     965        .dwattr $C$DW$71, DW_AT_bit_offset(0x1c), DW_AT_bit_size(0x01)
     966        .dwattr $C$DW$71, DW_AT_data_member_location[DW_OP_plus_uconst 0x0]
     967        .dwattr $C$DW$71, DW_AT_accessibility(DW_ACCESS_public)
     968        .dwattr $C$DW$71, DW_AT_decl_file("/usr/lib/ti/pru-software-support-package/include/am335x/pru
     969        .dwattr $C$DW$71, DW_AT_decl_line(0x6e)
     970        .dwattr $C$DW$71, DW_AT_decl_column(0x0d)
     971$C$DW$72        .dwtag  DW_TAG_member
PRU Assembler Unix v2.1.4 Fri Apr 13 06:28:55 2018

Tools Copyright (c) 2012-2015 Texas Instruments Incorporated
main.asm                                                             PAGE   19

     972        .dwattr $C$DW$72, DW_AT_type(*$C$DW$T$11)
     973        .dwattr $C$DW$72, DW_AT_name("PRU1_CLK_STOP_ACK")
     974        .dwattr $C$DW$72, DW_AT_TI_symbol_name("PRU1_CLK_STOP_ACK")
     975        .dwattr $C$DW$72, DW_AT_bit_offset(0x1b), DW_AT_bit_size(0x01)
     976        .dwattr $C$DW$72, DW_AT_data_member_location[DW_OP_plus_uconst 0x0]
     977        .dwattr $C$DW$72, DW_AT_accessibility(DW_ACCESS_public)
     978        .dwattr $C$DW$72, DW_AT_decl_file("/usr/lib/ti/pru-software-support-package/include/am335x/pru
     979        .dwattr $C$DW$72, DW_AT_decl_line(0x6f)
     980        .dwattr $C$DW$72, DW_AT_decl_column(0x0d)
     981$C$DW$73        .dwtag  DW_TAG_member
     982        .dwattr $C$DW$73, DW_AT_type(*$C$DW$T$11)
     983        .dwattr $C$DW$73, DW_AT_name("PRU1_CLK_EN")
     984        .dwattr $C$DW$73, DW_AT_TI_symbol_name("PRU1_CLK_EN")
     985        .dwattr $C$DW$73, DW_AT_bit_offset(0x1a), DW_AT_bit_size(0x01)
     986        .dwattr $C$DW$73, DW_AT_data_member_location[DW_OP_plus_uconst 0x0]
     987        .dwattr $C$DW$73, DW_AT_accessibility(DW_ACCESS_public)
     988        .dwattr $C$DW$73, DW_AT_decl_file("/usr/lib/ti/pru-software-support-package/include/am335x/pru
     989        .dwattr $C$DW$73, DW_AT_decl_line(0x70)
     990        .dwattr $C$DW$73, DW_AT_decl_column(0x0d)
     991$C$DW$74        .dwtag  DW_TAG_member
     992        .dwattr $C$DW$74, DW_AT_type(*$C$DW$T$11)
     993        .dwattr $C$DW$74, DW_AT_name("INTC_CLK_STOP_REQ")
     994        .dwattr $C$DW$74, DW_AT_TI_symbol_name("INTC_CLK_STOP_REQ")
     995        .dwattr $C$DW$74, DW_AT_bit_offset(0x19), DW_AT_bit_size(0x01)
     996        .dwattr $C$DW$74, DW_AT_data_member_location[DW_OP_plus_uconst 0x0]
     997        .dwattr $C$DW$74, DW_AT_accessibility(DW_ACCESS_public)
     998        .dwattr $C$DW$74, DW_AT_decl_file("/usr/lib/ti/pru-software-support-package/include/am335x/pru
     999        .dwattr $C$DW$74, DW_AT_decl_line(0x71)
    1000        .dwattr $C$DW$74, DW_AT_decl_column(0x0d)
    1001$C$DW$75        .dwtag  DW_TAG_member
    1002        .dwattr $C$DW$75, DW_AT_type(*$C$DW$T$11)
    1003        .dwattr $C$DW$75, DW_AT_name("INTC_CLK_STOP_ACK")
    1004        .dwattr $C$DW$75, DW_AT_TI_symbol_name("INTC_CLK_STOP_ACK")
    1005        .dwattr $C$DW$75, DW_AT_bit_offset(0x18), DW_AT_bit_size(0x01)
    1006        .dwattr $C$DW$75, DW_AT_data_member_location[DW_OP_plus_uconst 0x0]
    1007        .dwattr $C$DW$75, DW_AT_accessibility(DW_ACCESS_public)
    1008        .dwattr $C$DW$75, DW_AT_decl_file("/usr/lib/ti/pru-software-support-package/include/am335x/pru
    1009        .dwattr $C$DW$75, DW_AT_decl_line(0x72)
    1010        .dwattr $C$DW$75, DW_AT_decl_column(0x0d)
    1011$C$DW$76        .dwtag  DW_TAG_member
    1012        .dwattr $C$DW$76, DW_AT_type(*$C$DW$T$11)
    1013        .dwattr $C$DW$76, DW_AT_name("INTC_CLK_EN")
    1014        .dwattr $C$DW$76, DW_AT_TI_symbol_name("INTC_CLK_EN")
    1015        .dwattr $C$DW$76, DW_AT_bit_offset(0x17), DW_AT_bit_size(0x01)
    1016        .dwattr $C$DW$76, DW_AT_data_member_location[DW_OP_plus_uconst 0x0]
    1017        .dwattr $C$DW$76, DW_AT_accessibility(DW_ACCESS_public)
    1018        .dwattr $C$DW$76, DW_AT_decl_file("/usr/lib/ti/pru-software-support-package/include/am335x/pru
    1019        .dwattr $C$DW$76, DW_AT_decl_line(0x73)
    1020        .dwattr $C$DW$76, DW_AT_decl_column(0x0d)
    1021$C$DW$77        .dwtag  DW_TAG_member
    1022        .dwattr $C$DW$77, DW_AT_type(*$C$DW$T$11)
    1023        .dwattr $C$DW$77, DW_AT_name("UART_CLK_STOP_REQ")
    1024        .dwattr $C$DW$77, DW_AT_TI_symbol_name("UART_CLK_STOP_REQ")
    1025        .dwattr $C$DW$77, DW_AT_bit_offset(0x16), DW_AT_bit_size(0x01)
    1026        .dwattr $C$DW$77, DW_AT_data_member_location[DW_OP_plus_uconst 0x0]
PRU Assembler Unix v2.1.4 Fri Apr 13 06:28:55 2018

Tools Copyright (c) 2012-2015 Texas Instruments Incorporated
main.asm                                                             PAGE   20

    1027        .dwattr $C$DW$77, DW_AT_accessibility(DW_ACCESS_public)
    1028        .dwattr $C$DW$77, DW_AT_decl_file("/usr/lib/ti/pru-software-support-package/include/am335x/pru
    1029        .dwattr $C$DW$77, DW_AT_decl_line(0x74)
    1030        .dwattr $C$DW$77, DW_AT_decl_column(0x0d)
    1031$C$DW$78        .dwtag  DW_TAG_member
    1032        .dwattr $C$DW$78, DW_AT_type(*$C$DW$T$11)
    1033        .dwattr $C$DW$78, DW_AT_name("UART_CLK_STOP_ACK")
    1034        .dwattr $C$DW$78, DW_AT_TI_symbol_name("UART_CLK_STOP_ACK")
    1035        .dwattr $C$DW$78, DW_AT_bit_offset(0x15), DW_AT_bit_size(0x01)
    1036        .dwattr $C$DW$78, DW_AT_data_member_location[DW_OP_plus_uconst 0x0]
    1037        .dwattr $C$DW$78, DW_AT_accessibility(DW_ACCESS_public)
    1038        .dwattr $C$DW$78, DW_AT_decl_file("/usr/lib/ti/pru-software-support-package/include/am335x/pru
    1039        .dwattr $C$DW$78, DW_AT_decl_line(0x75)
    1040        .dwattr $C$DW$78, DW_AT_decl_column(0x0d)
    1041$C$DW$79        .dwtag  DW_TAG_member
    1042        .dwattr $C$DW$79, DW_AT_type(*$C$DW$T$11)
    1043        .dwattr $C$DW$79, DW_AT_name("UART_CLK_EN")
    1044        .dwattr $C$DW$79, DW_AT_TI_symbol_name("UART_CLK_EN")
    1045        .dwattr $C$DW$79, DW_AT_bit_offset(0x14), DW_AT_bit_size(0x01)
    1046        .dwattr $C$DW$79, DW_AT_data_member_location[DW_OP_plus_uconst 0x0]
    1047        .dwattr $C$DW$79, DW_AT_accessibility(DW_ACCESS_public)
    1048        .dwattr $C$DW$79, DW_AT_decl_file("/usr/lib/ti/pru-software-support-package/include/am335x/pru
    1049        .dwattr $C$DW$79, DW_AT_decl_line(0x76)
    1050        .dwattr $C$DW$79, DW_AT_decl_column(0x0d)
    1051$C$DW$80        .dwtag  DW_TAG_member
    1052        .dwattr $C$DW$80, DW_AT_type(*$C$DW$T$11)
    1053        .dwattr $C$DW$80, DW_AT_name("ECAP_CLK_STOP_REQ")
    1054        .dwattr $C$DW$80, DW_AT_TI_symbol_name("ECAP_CLK_STOP_REQ")
    1055        .dwattr $C$DW$80, DW_AT_bit_offset(0x13), DW_AT_bit_size(0x01)
    1056        .dwattr $C$DW$80, DW_AT_data_member_location[DW_OP_plus_uconst 0x0]
    1057        .dwattr $C$DW$80, DW_AT_accessibility(DW_ACCESS_public)
    1058        .dwattr $C$DW$80, DW_AT_decl_file("/usr/lib/ti/pru-software-support-package/include/am335x/pru
    1059        .dwattr $C$DW$80, DW_AT_decl_line(0x77)
    1060        .dwattr $C$DW$80, DW_AT_decl_column(0x0d)
    1061$C$DW$81        .dwtag  DW_TAG_member
    1062        .dwattr $C$DW$81, DW_AT_type(*$C$DW$T$11)
    1063        .dwattr $C$DW$81, DW_AT_name("ECAP_CLK_STOP_ACK")
    1064        .dwattr $C$DW$81, DW_AT_TI_symbol_name("ECAP_CLK_STOP_ACK")
    1065        .dwattr $C$DW$81, DW_AT_bit_offset(0x12), DW_AT_bit_size(0x01)
    1066        .dwattr $C$DW$81, DW_AT_data_member_location[DW_OP_plus_uconst 0x0]
    1067        .dwattr $C$DW$81, DW_AT_accessibility(DW_ACCESS_public)
    1068        .dwattr $C$DW$81, DW_AT_decl_file("/usr/lib/ti/pru-software-support-package/include/am335x/pru
    1069        .dwattr $C$DW$81, DW_AT_decl_line(0x78)
    1070        .dwattr $C$DW$81, DW_AT_decl_column(0x0d)
    1071$C$DW$82        .dwtag  DW_TAG_member
    1072        .dwattr $C$DW$82, DW_AT_type(*$C$DW$T$11)
    1073        .dwattr $C$DW$82, DW_AT_name("ECAP_CLK_EN")
    1074        .dwattr $C$DW$82, DW_AT_TI_symbol_name("ECAP_CLK_EN")
    1075        .dwattr $C$DW$82, DW_AT_bit_offset(0x11), DW_AT_bit_size(0x01)
    1076        .dwattr $C$DW$82, DW_AT_data_member_location[DW_OP_plus_uconst 0x0]
    1077        .dwattr $C$DW$82, DW_AT_accessibility(DW_ACCESS_public)
    1078        .dwattr $C$DW$82, DW_AT_decl_file("/usr/lib/ti/pru-software-support-package/include/am335x/pru
    1079        .dwattr $C$DW$82, DW_AT_decl_line(0x79)
    1080        .dwattr $C$DW$82, DW_AT_decl_column(0x0d)
    1081$C$DW$83        .dwtag  DW_TAG_member
PRU Assembler Unix v2.1.4 Fri Apr 13 06:28:55 2018

Tools Copyright (c) 2012-2015 Texas Instruments Incorporated
main.asm                                                             PAGE   21

    1082        .dwattr $C$DW$83, DW_AT_type(*$C$DW$T$11)
    1083        .dwattr $C$DW$83, DW_AT_name("IEP_CLK_STOP_REQ")
    1084        .dwattr $C$DW$83, DW_AT_TI_symbol_name("IEP_CLK_STOP_REQ")
    1085        .dwattr $C$DW$83, DW_AT_bit_offset(0x10), DW_AT_bit_size(0x01)
    1086        .dwattr $C$DW$83, DW_AT_data_member_location[DW_OP_plus_uconst 0x0]
    1087        .dwattr $C$DW$83, DW_AT_accessibility(DW_ACCESS_public)
    1088        .dwattr $C$DW$83, DW_AT_decl_file("/usr/lib/ti/pru-software-support-package/include/am335x/pru
    1089        .dwattr $C$DW$83, DW_AT_decl_line(0x7a)
    1090        .dwattr $C$DW$83, DW_AT_decl_column(0x0d)
    1091$C$DW$84        .dwtag  DW_TAG_member
    1092        .dwattr $C$DW$84, DW_AT_type(*$C$DW$T$11)
    1093        .dwattr $C$DW$84, DW_AT_name("IEP_CLK_STOP_ACK")
    1094        .dwattr $C$DW$84, DW_AT_TI_symbol_name("IEP_CLK_STOP_ACK")
    1095        .dwattr $C$DW$84, DW_AT_bit_offset(0x0f), DW_AT_bit_size(0x01)
    1096        .dwattr $C$DW$84, DW_AT_data_member_location[DW_OP_plus_uconst 0x0]
    1097        .dwattr $C$DW$84, DW_AT_accessibility(DW_ACCESS_public)
    1098        .dwattr $C$DW$84, DW_AT_decl_file("/usr/lib/ti/pru-software-support-package/include/am335x/pru
    1099        .dwattr $C$DW$84, DW_AT_decl_line(0x7b)
    1100        .dwattr $C$DW$84, DW_AT_decl_column(0x0d)
    1101$C$DW$85        .dwtag  DW_TAG_member
    1102        .dwattr $C$DW$85, DW_AT_type(*$C$DW$T$11)
    1103        .dwattr $C$DW$85, DW_AT_name("IEP_CLK_EN")
    1104        .dwattr $C$DW$85, DW_AT_TI_symbol_name("IEP_CLK_EN")
    1105        .dwattr $C$DW$85, DW_AT_bit_offset(0x0e), DW_AT_bit_size(0x01)
    1106        .dwattr $C$DW$85, DW_AT_data_member_location[DW_OP_plus_uconst 0x0]
    1107        .dwattr $C$DW$85, DW_AT_accessibility(DW_ACCESS_public)
    1108        .dwattr $C$DW$85, DW_AT_decl_file("/usr/lib/ti/pru-software-support-package/include/am335x/pru
    1109        .dwattr $C$DW$85, DW_AT_decl_line(0x7c)
    1110        .dwattr $C$DW$85, DW_AT_decl_column(0x0d)
    1111$C$DW$86        .dwtag  DW_TAG_member
    1112        .dwattr $C$DW$86, DW_AT_type(*$C$DW$T$11)
    1113        .dwattr $C$DW$86, DW_AT_name("rsvd18")
    1114        .dwattr $C$DW$86, DW_AT_TI_symbol_name("rsvd18")
    1115        .dwattr $C$DW$86, DW_AT_bit_offset(0x00), DW_AT_bit_size(0x0e)
    1116        .dwattr $C$DW$86, DW_AT_data_member_location[DW_OP_plus_uconst 0x0]
    1117        .dwattr $C$DW$86, DW_AT_accessibility(DW_ACCESS_public)
    1118        .dwattr $C$DW$86, DW_AT_decl_file("/usr/lib/ti/pru-software-support-package/include/am335x/pru
    1119        .dwattr $C$DW$86, DW_AT_decl_line(0x7d)
    1120        .dwattr $C$DW$86, DW_AT_decl_column(0x0d)
    1121        .dwendtag $C$DW$T$23
    1122
    1123        .dwattr $C$DW$T$23, DW_AT_decl_file("/usr/lib/ti/pru-software-support-package/include/am335x/p
    1124        .dwattr $C$DW$T$23, DW_AT_decl_line(0x6a)
    1125        .dwattr $C$DW$T$23, DW_AT_decl_column(0x13)
    1126$C$DW$T$116     .dwtag  DW_TAG_volatile_type
    1127        .dwattr $C$DW$T$116, DW_AT_type(*$C$DW$T$23)
    1128
    1129$C$DW$T$24      .dwtag  DW_TAG_structure_type
    1130        .dwattr $C$DW$T$24, DW_AT_byte_size(0x04)
    1131$C$DW$87        .dwtag  DW_TAG_member
    1132        .dwattr $C$DW$87, DW_AT_type(*$C$DW$T$11)
    1133        .dwattr $C$DW$87, DW_AT_name("PRU0_IMEM_PE_RAW")
    1134        .dwattr $C$DW$87, DW_AT_TI_symbol_name("PRU0_IMEM_PE_RAW")
    1135        .dwattr $C$DW$87, DW_AT_bit_offset(0x1c), DW_AT_bit_size(0x04)
    1136        .dwattr $C$DW$87, DW_AT_data_member_location[DW_OP_plus_uconst 0x0]
PRU Assembler Unix v2.1.4 Fri Apr 13 06:28:55 2018

Tools Copyright (c) 2012-2015 Texas Instruments Incorporated
main.asm                                                             PAGE   22

    1137        .dwattr $C$DW$87, DW_AT_accessibility(DW_ACCESS_public)
    1138        .dwattr $C$DW$87, DW_AT_decl_file("/usr/lib/ti/pru-software-support-package/include/am335x/pru
    1139        .dwattr $C$DW$87, DW_AT_decl_line(0x87)
    1140        .dwattr $C$DW$87, DW_AT_decl_column(0x0d)
    1141$C$DW$88        .dwtag  DW_TAG_member
    1142        .dwattr $C$DW$88, DW_AT_type(*$C$DW$T$11)
    1143        .dwattr $C$DW$88, DW_AT_name("PRU0_DMEM_PE_RAW")
    1144        .dwattr $C$DW$88, DW_AT_TI_symbol_name("PRU0_DMEM_PE_RAW")
    1145        .dwattr $C$DW$88, DW_AT_bit_offset(0x18), DW_AT_bit_size(0x04)
    1146        .dwattr $C$DW$88, DW_AT_data_member_location[DW_OP_plus_uconst 0x0]
    1147        .dwattr $C$DW$88, DW_AT_accessibility(DW_ACCESS_public)
    1148        .dwattr $C$DW$88, DW_AT_decl_file("/usr/lib/ti/pru-software-support-package/include/am335x/pru
    1149        .dwattr $C$DW$88, DW_AT_decl_line(0x88)
    1150        .dwattr $C$DW$88, DW_AT_decl_column(0x0d)
    1151$C$DW$89        .dwtag  DW_TAG_member
    1152        .dwattr $C$DW$89, DW_AT_type(*$C$DW$T$11)
    1153        .dwattr $C$DW$89, DW_AT_name("PRU1_IMEM_PE_RAW")
    1154        .dwattr $C$DW$89, DW_AT_TI_symbol_name("PRU1_IMEM_PE_RAW")
    1155        .dwattr $C$DW$89, DW_AT_bit_offset(0x14), DW_AT_bit_size(0x04)
    1156        .dwattr $C$DW$89, DW_AT_data_member_location[DW_OP_plus_uconst 0x0]
    1157        .dwattr $C$DW$89, DW_AT_accessibility(DW_ACCESS_public)
    1158        .dwattr $C$DW$89, DW_AT_decl_file("/usr/lib/ti/pru-software-support-package/include/am335x/pru
    1159        .dwattr $C$DW$89, DW_AT_decl_line(0x89)
    1160        .dwattr $C$DW$89, DW_AT_decl_column(0x0d)
    1161$C$DW$90        .dwtag  DW_TAG_member
    1162        .dwattr $C$DW$90, DW_AT_type(*$C$DW$T$11)
    1163        .dwattr $C$DW$90, DW_AT_name("PRU1_DMEM_PE_RAW")
    1164        .dwattr $C$DW$90, DW_AT_TI_symbol_name("PRU1_DMEM_PE_RAW")
    1165        .dwattr $C$DW$90, DW_AT_bit_offset(0x10), DW_AT_bit_size(0x04)
    1166        .dwattr $C$DW$90, DW_AT_data_member_location[DW_OP_plus_uconst 0x0]
    1167        .dwattr $C$DW$90, DW_AT_accessibility(DW_ACCESS_public)
    1168        .dwattr $C$DW$90, DW_AT_decl_file("/usr/lib/ti/pru-software-support-package/include/am335x/pru
    1169        .dwattr $C$DW$90, DW_AT_decl_line(0x8a)
    1170        .dwattr $C$DW$90, DW_AT_decl_column(0x0d)
    1171$C$DW$91        .dwtag  DW_TAG_member
    1172        .dwattr $C$DW$91, DW_AT_type(*$C$DW$T$11)
    1173        .dwattr $C$DW$91, DW_AT_name("RAM_PE_RAW")
    1174        .dwattr $C$DW$91, DW_AT_TI_symbol_name("RAM_PE_RAW")
    1175        .dwattr $C$DW$91, DW_AT_bit_offset(0x0c), DW_AT_bit_size(0x04)
    1176        .dwattr $C$DW$91, DW_AT_data_member_location[DW_OP_plus_uconst 0x0]
    1177        .dwattr $C$DW$91, DW_AT_accessibility(DW_ACCESS_public)
    1178        .dwattr $C$DW$91, DW_AT_decl_file("/usr/lib/ti/pru-software-support-package/include/am335x/pru
    1179        .dwattr $C$DW$91, DW_AT_decl_line(0x8b)
    1180        .dwattr $C$DW$91, DW_AT_decl_column(0x0d)
    1181$C$DW$92        .dwtag  DW_TAG_member
    1182        .dwattr $C$DW$92, DW_AT_type(*$C$DW$T$11)
    1183        .dwattr $C$DW$92, DW_AT_name("rsvd20")
    1184        .dwattr $C$DW$92, DW_AT_TI_symbol_name("rsvd20")
    1185        .dwattr $C$DW$92, DW_AT_bit_offset(0x00), DW_AT_bit_size(0x0c)
    1186        .dwattr $C$DW$92, DW_AT_data_member_location[DW_OP_plus_uconst 0x0]
    1187        .dwattr $C$DW$92, DW_AT_accessibility(DW_ACCESS_public)
    1188        .dwattr $C$DW$92, DW_AT_decl_file("/usr/lib/ti/pru-software-support-package/include/am335x/pru
    1189        .dwattr $C$DW$92, DW_AT_decl_line(0x8c)
    1190        .dwattr $C$DW$92, DW_AT_decl_column(0x0d)
    1191        .dwendtag $C$DW$T$24
PRU Assembler Unix v2.1.4 Fri Apr 13 06:28:55 2018

Tools Copyright (c) 2012-2015 Texas Instruments Incorporated
main.asm                                                             PAGE   23

    1192
    1193        .dwattr $C$DW$T$24, DW_AT_decl_file("/usr/lib/ti/pru-software-support-package/include/am335x/p
    1194        .dwattr $C$DW$T$24, DW_AT_decl_line(0x86)
    1195        .dwattr $C$DW$T$24, DW_AT_decl_column(0x14)
    1196$C$DW$T$118     .dwtag  DW_TAG_volatile_type
    1197        .dwattr $C$DW$T$118, DW_AT_type(*$C$DW$T$24)
    1198
    1199$C$DW$T$25      .dwtag  DW_TAG_structure_type
    1200        .dwattr $C$DW$T$25, DW_AT_byte_size(0x04)
    1201$C$DW$93        .dwtag  DW_TAG_member
    1202        .dwattr $C$DW$93, DW_AT_type(*$C$DW$T$11)
    1203        .dwattr $C$DW$93, DW_AT_name("PRU0_IMEM_PE")
    1204        .dwattr $C$DW$93, DW_AT_TI_symbol_name("PRU0_IMEM_PE")
    1205        .dwattr $C$DW$93, DW_AT_bit_offset(0x1c), DW_AT_bit_size(0x04)
    1206        .dwattr $C$DW$93, DW_AT_data_member_location[DW_OP_plus_uconst 0x0]
    1207        .dwattr $C$DW$93, DW_AT_accessibility(DW_ACCESS_public)
    1208        .dwattr $C$DW$93, DW_AT_decl_file("/usr/lib/ti/pru-software-support-package/include/am335x/pru
    1209        .dwattr $C$DW$93, DW_AT_decl_line(0x96)
    1210        .dwattr $C$DW$93, DW_AT_decl_column(0x0d)
    1211$C$DW$94        .dwtag  DW_TAG_member
    1212        .dwattr $C$DW$94, DW_AT_type(*$C$DW$T$11)
    1213        .dwattr $C$DW$94, DW_AT_name("PRU0_DMEM_PE")
    1214        .dwattr $C$DW$94, DW_AT_TI_symbol_name("PRU0_DMEM_PE")
    1215        .dwattr $C$DW$94, DW_AT_bit_offset(0x18), DW_AT_bit_size(0x04)
    1216        .dwattr $C$DW$94, DW_AT_data_member_location[DW_OP_plus_uconst 0x0]
    1217        .dwattr $C$DW$94, DW_AT_accessibility(DW_ACCESS_public)
    1218        .dwattr $C$DW$94, DW_AT_decl_file("/usr/lib/ti/pru-software-support-package/include/am335x/pru
    1219        .dwattr $C$DW$94, DW_AT_decl_line(0x97)
    1220        .dwattr $C$DW$94, DW_AT_decl_column(0x0d)
    1221$C$DW$95        .dwtag  DW_TAG_member
    1222        .dwattr $C$DW$95, DW_AT_type(*$C$DW$T$11)
    1223        .dwattr $C$DW$95, DW_AT_name("PRU1_IMEM_PE")
    1224        .dwattr $C$DW$95, DW_AT_TI_symbol_name("PRU1_IMEM_PE")
    1225        .dwattr $C$DW$95, DW_AT_bit_offset(0x14), DW_AT_bit_size(0x04)
    1226        .dwattr $C$DW$95, DW_AT_data_member_location[DW_OP_plus_uconst 0x0]
    1227        .dwattr $C$DW$95, DW_AT_accessibility(DW_ACCESS_public)
    1228        .dwattr $C$DW$95, DW_AT_decl_file("/usr/lib/ti/pru-software-support-package/include/am335x/pru
    1229        .dwattr $C$DW$95, DW_AT_decl_line(0x98)
    1230        .dwattr $C$DW$95, DW_AT_decl_column(0x0d)
    1231$C$DW$96        .dwtag  DW_TAG_member
    1232        .dwattr $C$DW$96, DW_AT_type(*$C$DW$T$11)
    1233        .dwattr $C$DW$96, DW_AT_name("PRU1_DMEM_PE")
    1234        .dwattr $C$DW$96, DW_AT_TI_symbol_name("PRU1_DMEM_PE")
    1235        .dwattr $C$DW$96, DW_AT_bit_offset(0x10), DW_AT_bit_size(0x04)
    1236        .dwattr $C$DW$96, DW_AT_data_member_location[DW_OP_plus_uconst 0x0]
    1237        .dwattr $C$DW$96, DW_AT_accessibility(DW_ACCESS_public)
    1238        .dwattr $C$DW$96, DW_AT_decl_file("/usr/lib/ti/pru-software-support-package/include/am335x/pru
    1239        .dwattr $C$DW$96, DW_AT_decl_line(0x99)
    1240        .dwattr $C$DW$96, DW_AT_decl_column(0x0d)
    1241$C$DW$97        .dwtag  DW_TAG_member
    1242        .dwattr $C$DW$97, DW_AT_type(*$C$DW$T$11)
    1243        .dwattr $C$DW$97, DW_AT_name("RAM_PE")
    1244        .dwattr $C$DW$97, DW_AT_TI_symbol_name("RAM_PE")
    1245        .dwattr $C$DW$97, DW_AT_bit_offset(0x0c), DW_AT_bit_size(0x04)
    1246        .dwattr $C$DW$97, DW_AT_data_member_location[DW_OP_plus_uconst 0x0]
PRU Assembler Unix v2.1.4 Fri Apr 13 06:28:55 2018

Tools Copyright (c) 2012-2015 Texas Instruments Incorporated
main.asm                                                             PAGE   24

    1247        .dwattr $C$DW$97, DW_AT_accessibility(DW_ACCESS_public)
    1248        .dwattr $C$DW$97, DW_AT_decl_file("/usr/lib/ti/pru-software-support-package/include/am335x/pru
    1249        .dwattr $C$DW$97, DW_AT_decl_line(0x9a)
    1250        .dwattr $C$DW$97, DW_AT_decl_column(0x0d)
    1251$C$DW$98        .dwtag  DW_TAG_member
    1252        .dwattr $C$DW$98, DW_AT_type(*$C$DW$T$11)
    1253        .dwattr $C$DW$98, DW_AT_name("rsvd20")
    1254        .dwattr $C$DW$98, DW_AT_TI_symbol_name("rsvd20")
    1255        .dwattr $C$DW$98, DW_AT_bit_offset(0x00), DW_AT_bit_size(0x0c)
    1256        .dwattr $C$DW$98, DW_AT_data_member_location[DW_OP_plus_uconst 0x0]
    1257        .dwattr $C$DW$98, DW_AT_accessibility(DW_ACCESS_public)
    1258        .dwattr $C$DW$98, DW_AT_decl_file("/usr/lib/ti/pru-software-support-package/include/am335x/pru
    1259        .dwattr $C$DW$98, DW_AT_decl_line(0x9b)
    1260        .dwattr $C$DW$98, DW_AT_decl_column(0x0d)
    1261        .dwendtag $C$DW$T$25
    1262
    1263        .dwattr $C$DW$T$25, DW_AT_decl_file("/usr/lib/ti/pru-software-support-package/include/am335x/p
    1264        .dwattr $C$DW$T$25, DW_AT_decl_line(0x95)
    1265        .dwattr $C$DW$T$25, DW_AT_decl_column(0x14)
    1266$C$DW$T$120     .dwtag  DW_TAG_volatile_type
    1267        .dwattr $C$DW$T$120, DW_AT_type(*$C$DW$T$25)
    1268
    1269$C$DW$T$26      .dwtag  DW_TAG_structure_type
    1270        .dwattr $C$DW$T$26, DW_AT_byte_size(0x04)
    1271$C$DW$99        .dwtag  DW_TAG_member
    1272        .dwattr $C$DW$99, DW_AT_type(*$C$DW$T$11)
    1273        .dwattr $C$DW$99, DW_AT_name("PRU0_IMEM_PE_SET")
    1274        .dwattr $C$DW$99, DW_AT_TI_symbol_name("PRU0_IMEM_PE_SET")
    1275        .dwattr $C$DW$99, DW_AT_bit_offset(0x1c), DW_AT_bit_size(0x04)
    1276        .dwattr $C$DW$99, DW_AT_data_member_location[DW_OP_plus_uconst 0x0]
    1277        .dwattr $C$DW$99, DW_AT_accessibility(DW_ACCESS_public)
    1278        .dwattr $C$DW$99, DW_AT_decl_file("/usr/lib/ti/pru-software-support-package/include/am335x/pru
    1279        .dwattr $C$DW$99, DW_AT_decl_line(0xa4)
    1280        .dwattr $C$DW$99, DW_AT_decl_column(0x0d)
    1281$C$DW$100       .dwtag  DW_TAG_member
    1282        .dwattr $C$DW$100, DW_AT_type(*$C$DW$T$11)
    1283        .dwattr $C$DW$100, DW_AT_name("PRU0_DMEM_PE_SET")
    1284        .dwattr $C$DW$100, DW_AT_TI_symbol_name("PRU0_DMEM_PE_SET")
    1285        .dwattr $C$DW$100, DW_AT_bit_offset(0x18), DW_AT_bit_size(0x04)
    1286        .dwattr $C$DW$100, DW_AT_data_member_location[DW_OP_plus_uconst 0x0]
    1287        .dwattr $C$DW$100, DW_AT_accessibility(DW_ACCESS_public)
    1288        .dwattr $C$DW$100, DW_AT_decl_file("/usr/lib/ti/pru-software-support-package/include/am335x/pr
    1289        .dwattr $C$DW$100, DW_AT_decl_line(0xa5)
    1290        .dwattr $C$DW$100, DW_AT_decl_column(0x0d)
    1291$C$DW$101       .dwtag  DW_TAG_member
    1292        .dwattr $C$DW$101, DW_AT_type(*$C$DW$T$11)
    1293        .dwattr $C$DW$101, DW_AT_name("PRU1_IMEM_PE_SET")
    1294        .dwattr $C$DW$101, DW_AT_TI_symbol_name("PRU1_IMEM_PE_SET")
    1295        .dwattr $C$DW$101, DW_AT_bit_offset(0x14), DW_AT_bit_size(0x04)
    1296        .dwattr $C$DW$101, DW_AT_data_member_location[DW_OP_plus_uconst 0x0]
    1297        .dwattr $C$DW$101, DW_AT_accessibility(DW_ACCESS_public)
    1298        .dwattr $C$DW$101, DW_AT_decl_file("/usr/lib/ti/pru-software-support-package/include/am335x/pr
    1299        .dwattr $C$DW$101, DW_AT_decl_line(0xa6)
    1300        .dwattr $C$DW$101, DW_AT_decl_column(0x0d)
    1301$C$DW$102       .dwtag  DW_TAG_member
PRU Assembler Unix v2.1.4 Fri Apr 13 06:28:55 2018

Tools Copyright (c) 2012-2015 Texas Instruments Incorporated
main.asm                                                             PAGE   25

    1302        .dwattr $C$DW$102, DW_AT_type(*$C$DW$T$11)
    1303        .dwattr $C$DW$102, DW_AT_name("PRU1_DMEM_PE_SET")
    1304        .dwattr $C$DW$102, DW_AT_TI_symbol_name("PRU1_DMEM_PE_SET")
    1305        .dwattr $C$DW$102, DW_AT_bit_offset(0x10), DW_AT_bit_size(0x04)
    1306        .dwattr $C$DW$102, DW_AT_data_member_location[DW_OP_plus_uconst 0x0]
    1307        .dwattr $C$DW$102, DW_AT_accessibility(DW_ACCESS_public)
    1308        .dwattr $C$DW$102, DW_AT_decl_file("/usr/lib/ti/pru-software-support-package/include/am335x/pr
    1309        .dwattr $C$DW$102, DW_AT_decl_line(0xa7)
    1310        .dwattr $C$DW$102, DW_AT_decl_column(0x0d)
    1311$C$DW$103       .dwtag  DW_TAG_member
    1312        .dwattr $C$DW$103, DW_AT_type(*$C$DW$T$11)
    1313        .dwattr $C$DW$103, DW_AT_name("RAM_PE_SET")
    1314        .dwattr $C$DW$103, DW_AT_TI_symbol_name("RAM_PE_SET")
    1315        .dwattr $C$DW$103, DW_AT_bit_offset(0x0c), DW_AT_bit_size(0x04)
    1316        .dwattr $C$DW$103, DW_AT_data_member_location[DW_OP_plus_uconst 0x0]
    1317        .dwattr $C$DW$103, DW_AT_accessibility(DW_ACCESS_public)
    1318        .dwattr $C$DW$103, DW_AT_decl_file("/usr/lib/ti/pru-software-support-package/include/am335x/pr
    1319        .dwattr $C$DW$103, DW_AT_decl_line(0xa8)
    1320        .dwattr $C$DW$103, DW_AT_decl_column(0x0d)
    1321$C$DW$104       .dwtag  DW_TAG_member
    1322        .dwattr $C$DW$104, DW_AT_type(*$C$DW$T$11)
    1323        .dwattr $C$DW$104, DW_AT_name("rsvd20")
    1324        .dwattr $C$DW$104, DW_AT_TI_symbol_name("rsvd20")
    1325        .dwattr $C$DW$104, DW_AT_bit_offset(0x00), DW_AT_bit_size(0x0c)
    1326        .dwattr $C$DW$104, DW_AT_data_member_location[DW_OP_plus_uconst 0x0]
    1327        .dwattr $C$DW$104, DW_AT_accessibility(DW_ACCESS_public)
    1328        .dwattr $C$DW$104, DW_AT_decl_file("/usr/lib/ti/pru-software-support-package/include/am335x/pr
    1329        .dwattr $C$DW$104, DW_AT_decl_line(0xa9)
    1330        .dwattr $C$DW$104, DW_AT_decl_column(0x0d)
    1331        .dwendtag $C$DW$T$26
    1332
    1333        .dwattr $C$DW$T$26, DW_AT_decl_file("/usr/lib/ti/pru-software-support-package/include/am335x/p
    1334        .dwattr $C$DW$T$26, DW_AT_decl_line(0xa3)
    1335        .dwattr $C$DW$T$26, DW_AT_decl_column(0x13)
    1336$C$DW$T$122     .dwtag  DW_TAG_volatile_type
    1337        .dwattr $C$DW$T$122, DW_AT_type(*$C$DW$T$26)
    1338
    1339$C$DW$T$27      .dwtag  DW_TAG_structure_type
    1340        .dwattr $C$DW$T$27, DW_AT_byte_size(0x04)
    1341$C$DW$105       .dwtag  DW_TAG_member
    1342        .dwattr $C$DW$105, DW_AT_type(*$C$DW$T$11)
    1343        .dwattr $C$DW$105, DW_AT_name("PRU0_IMEM_PE_CLR")
    1344        .dwattr $C$DW$105, DW_AT_TI_symbol_name("PRU0_IMEM_PE_CLR")
    1345        .dwattr $C$DW$105, DW_AT_bit_offset(0x1c), DW_AT_bit_size(0x04)
    1346        .dwattr $C$DW$105, DW_AT_data_member_location[DW_OP_plus_uconst 0x0]
    1347        .dwattr $C$DW$105, DW_AT_accessibility(DW_ACCESS_public)
    1348        .dwattr $C$DW$105, DW_AT_decl_file("/usr/lib/ti/pru-software-support-package/include/am335x/pr
    1349        .dwattr $C$DW$105, DW_AT_decl_line(0xb3)
    1350        .dwattr $C$DW$105, DW_AT_decl_column(0x0d)
    1351$C$DW$106       .dwtag  DW_TAG_member
    1352        .dwattr $C$DW$106, DW_AT_type(*$C$DW$T$11)
    1353        .dwattr $C$DW$106, DW_AT_name("PRU0_DMEM_PE_CLR")
    1354        .dwattr $C$DW$106, DW_AT_TI_symbol_name("PRU0_DMEM_PE_CLR")
    1355        .dwattr $C$DW$106, DW_AT_bit_offset(0x18), DW_AT_bit_size(0x04)
    1356        .dwattr $C$DW$106, DW_AT_data_member_location[DW_OP_plus_uconst 0x0]
PRU Assembler Unix v2.1.4 Fri Apr 13 06:28:55 2018

Tools Copyright (c) 2012-2015 Texas Instruments Incorporated
main.asm                                                             PAGE   26

    1357        .dwattr $C$DW$106, DW_AT_accessibility(DW_ACCESS_public)
    1358        .dwattr $C$DW$106, DW_AT_decl_file("/usr/lib/ti/pru-software-support-package/include/am335x/pr
    1359        .dwattr $C$DW$106, DW_AT_decl_line(0xb4)
    1360        .dwattr $C$DW$106, DW_AT_decl_column(0x0d)
    1361$C$DW$107       .dwtag  DW_TAG_member
    1362        .dwattr $C$DW$107, DW_AT_type(*$C$DW$T$11)
    1363        .dwattr $C$DW$107, DW_AT_name("PRU1_IMEM_PE_CLR")
    1364        .dwattr $C$DW$107, DW_AT_TI_symbol_name("PRU1_IMEM_PE_CLR")
    1365        .dwattr $C$DW$107, DW_AT_bit_offset(0x14), DW_AT_bit_size(0x04)
    1366        .dwattr $C$DW$107, DW_AT_data_member_location[DW_OP_plus_uconst 0x0]
    1367        .dwattr $C$DW$107, DW_AT_accessibility(DW_ACCESS_public)
    1368        .dwattr $C$DW$107, DW_AT_decl_file("/usr/lib/ti/pru-software-support-package/include/am335x/pr
    1369        .dwattr $C$DW$107, DW_AT_decl_line(0xb5)
    1370        .dwattr $C$DW$107, DW_AT_decl_column(0x0d)
    1371$C$DW$108       .dwtag  DW_TAG_member
    1372        .dwattr $C$DW$108, DW_AT_type(*$C$DW$T$11)
    1373        .dwattr $C$DW$108, DW_AT_name("PRU1_DMEM_PE_CLR")
    1374        .dwattr $C$DW$108, DW_AT_TI_symbol_name("PRU1_DMEM_PE_CLR")
    1375        .dwattr $C$DW$108, DW_AT_bit_offset(0x10), DW_AT_bit_size(0x04)
    1376        .dwattr $C$DW$108, DW_AT_data_member_location[DW_OP_plus_uconst 0x0]
    1377        .dwattr $C$DW$108, DW_AT_accessibility(DW_ACCESS_public)
    1378        .dwattr $C$DW$108, DW_AT_decl_file("/usr/lib/ti/pru-software-support-package/include/am335x/pr
    1379        .dwattr $C$DW$108, DW_AT_decl_line(0xb6)
    1380        .dwattr $C$DW$108, DW_AT_decl_column(0x0d)
    1381$C$DW$109       .dwtag  DW_TAG_member
    1382        .dwattr $C$DW$109, DW_AT_type(*$C$DW$T$11)
    1383        .dwattr $C$DW$109, DW_AT_name("rsvd16")
    1384        .dwattr $C$DW$109, DW_AT_TI_symbol_name("rsvd16")
    1385        .dwattr $C$DW$109, DW_AT_bit_offset(0x00), DW_AT_bit_size(0x10)
    1386        .dwattr $C$DW$109, DW_AT_data_member_location[DW_OP_plus_uconst 0x0]
    1387        .dwattr $C$DW$109, DW_AT_accessibility(DW_ACCESS_public)
    1388        .dwattr $C$DW$109, DW_AT_decl_file("/usr/lib/ti/pru-software-support-package/include/am335x/pr
    1389        .dwattr $C$DW$109, DW_AT_decl_line(0xb7)
    1390        .dwattr $C$DW$109, DW_AT_decl_column(0x0d)
    1391        .dwendtag $C$DW$T$27
    1392
    1393        .dwattr $C$DW$T$27, DW_AT_decl_file("/usr/lib/ti/pru-software-support-package/include/am335x/p
    1394        .dwattr $C$DW$T$27, DW_AT_decl_line(0xb2)
    1395        .dwattr $C$DW$T$27, DW_AT_decl_column(0x13)
    1396$C$DW$T$124     .dwtag  DW_TAG_volatile_type
    1397        .dwattr $C$DW$T$124, DW_AT_type(*$C$DW$T$27)
    1398
    1399$C$DW$T$28      .dwtag  DW_TAG_structure_type
    1400        .dwattr $C$DW$T$28, DW_AT_byte_size(0x04)
    1401$C$DW$110       .dwtag  DW_TAG_member
    1402        .dwattr $C$DW$110, DW_AT_type(*$C$DW$T$11)
    1403        .dwattr $C$DW$110, DW_AT_name("PMAO_PRU0")
    1404        .dwattr $C$DW$110, DW_AT_TI_symbol_name("PMAO_PRU0")
    1405        .dwattr $C$DW$110, DW_AT_bit_offset(0x1f), DW_AT_bit_size(0x01)
    1406        .dwattr $C$DW$110, DW_AT_data_member_location[DW_OP_plus_uconst 0x0]
    1407        .dwattr $C$DW$110, DW_AT_accessibility(DW_ACCESS_public)
    1408        .dwattr $C$DW$110, DW_AT_decl_file("/usr/lib/ti/pru-software-support-package/include/am335x/pr
    1409        .dwattr $C$DW$110, DW_AT_decl_line(0xc4)
    1410        .dwattr $C$DW$110, DW_AT_decl_column(0x0d)
    1411$C$DW$111       .dwtag  DW_TAG_member
PRU Assembler Unix v2.1.4 Fri Apr 13 06:28:55 2018

Tools Copyright (c) 2012-2015 Texas Instruments Incorporated
main.asm                                                             PAGE   27

    1412        .dwattr $C$DW$111, DW_AT_type(*$C$DW$T$11)
    1413        .dwattr $C$DW$111, DW_AT_name("PMAO_PRU1")
    1414        .dwattr $C$DW$111, DW_AT_TI_symbol_name("PMAO_PRU1")
    1415        .dwattr $C$DW$111, DW_AT_bit_offset(0x1e), DW_AT_bit_size(0x01)
    1416        .dwattr $C$DW$111, DW_AT_data_member_location[DW_OP_plus_uconst 0x0]
    1417        .dwattr $C$DW$111, DW_AT_accessibility(DW_ACCESS_public)
    1418        .dwattr $C$DW$111, DW_AT_decl_file("/usr/lib/ti/pru-software-support-package/include/am335x/pr
    1419        .dwattr $C$DW$111, DW_AT_decl_line(0xc5)
    1420        .dwattr $C$DW$111, DW_AT_decl_column(0x0d)
    1421$C$DW$112       .dwtag  DW_TAG_member
    1422        .dwattr $C$DW$112, DW_AT_type(*$C$DW$T$11)
    1423        .dwattr $C$DW$112, DW_AT_name("rsvd2")
    1424        .dwattr $C$DW$112, DW_AT_TI_symbol_name("rsvd2")
    1425        .dwattr $C$DW$112, DW_AT_bit_offset(0x00), DW_AT_bit_size(0x1e)
    1426        .dwattr $C$DW$112, DW_AT_data_member_location[DW_OP_plus_uconst 0x0]
    1427        .dwattr $C$DW$112, DW_AT_accessibility(DW_ACCESS_public)
    1428        .dwattr $C$DW$112, DW_AT_decl_file("/usr/lib/ti/pru-software-support-package/include/am335x/pr
    1429        .dwattr $C$DW$112, DW_AT_decl_line(0xc6)
    1430        .dwattr $C$DW$112, DW_AT_decl_column(0x0d)
    1431        .dwendtag $C$DW$T$28
    1432
    1433        .dwattr $C$DW$T$28, DW_AT_decl_file("/usr/lib/ti/pru-software-support-package/include/am335x/p
    1434        .dwattr $C$DW$T$28, DW_AT_decl_line(0xc3)
    1435        .dwattr $C$DW$T$28, DW_AT_decl_column(0x13)
    1436$C$DW$T$126     .dwtag  DW_TAG_volatile_type
    1437        .dwattr $C$DW$T$126, DW_AT_type(*$C$DW$T$28)
    1438
    1439$C$DW$T$29      .dwtag  DW_TAG_structure_type
    1440        .dwattr $C$DW$T$29, DW_AT_byte_size(0x04)
    1441$C$DW$113       .dwtag  DW_TAG_member
    1442        .dwattr $C$DW$113, DW_AT_type(*$C$DW$T$11)
    1443        .dwattr $C$DW$113, DW_AT_name("OCP_EN")
    1444        .dwattr $C$DW$113, DW_AT_TI_symbol_name("OCP_EN")
    1445        .dwattr $C$DW$113, DW_AT_bit_offset(0x1f), DW_AT_bit_size(0x01)
    1446        .dwattr $C$DW$113, DW_AT_data_member_location[DW_OP_plus_uconst 0x0]
    1447        .dwattr $C$DW$113, DW_AT_accessibility(DW_ACCESS_public)
    1448        .dwattr $C$DW$113, DW_AT_decl_file("/usr/lib/ti/pru-software-support-package/include/am335x/pr
    1449        .dwattr $C$DW$113, DW_AT_decl_line(0xd3)
    1450        .dwattr $C$DW$113, DW_AT_decl_column(0x0d)
    1451$C$DW$114       .dwtag  DW_TAG_member
    1452        .dwattr $C$DW$114, DW_AT_type(*$C$DW$T$11)
    1453        .dwattr $C$DW$114, DW_AT_name("rsvd1")
    1454        .dwattr $C$DW$114, DW_AT_TI_symbol_name("rsvd1")
    1455        .dwattr $C$DW$114, DW_AT_bit_offset(0x00), DW_AT_bit_size(0x1f)
    1456        .dwattr $C$DW$114, DW_AT_data_member_location[DW_OP_plus_uconst 0x0]
    1457        .dwattr $C$DW$114, DW_AT_accessibility(DW_ACCESS_public)
    1458        .dwattr $C$DW$114, DW_AT_decl_file("/usr/lib/ti/pru-software-support-package/include/am335x/pr
    1459        .dwattr $C$DW$114, DW_AT_decl_line(0xd4)
    1460        .dwattr $C$DW$114, DW_AT_decl_column(0x0d)
    1461        .dwendtag $C$DW$T$29
    1462
    1463        .dwattr $C$DW$T$29, DW_AT_decl_file("/usr/lib/ti/pru-software-support-package/include/am335x/p
    1464        .dwattr $C$DW$T$29, DW_AT_decl_line(0xd2)
    1465        .dwattr $C$DW$T$29, DW_AT_decl_column(0x13)
    1466$C$DW$T$128     .dwtag  DW_TAG_volatile_type
PRU Assembler Unix v2.1.4 Fri Apr 13 06:28:55 2018

Tools Copyright (c) 2012-2015 Texas Instruments Incorporated
main.asm                                                             PAGE   28

    1467        .dwattr $C$DW$T$128, DW_AT_type(*$C$DW$T$29)
    1468
    1469$C$DW$T$30      .dwtag  DW_TAG_structure_type
    1470        .dwattr $C$DW$T$30, DW_AT_byte_size(0x04)
    1471$C$DW$115       .dwtag  DW_TAG_member
    1472        .dwattr $C$DW$115, DW_AT_type(*$C$DW$T$11)
    1473        .dwattr $C$DW$115, DW_AT_name("PRU1_PAD_HP_EN")
    1474        .dwattr $C$DW$115, DW_AT_TI_symbol_name("PRU1_PAD_HP_EN")
    1475        .dwattr $C$DW$115, DW_AT_bit_offset(0x1f), DW_AT_bit_size(0x01)
    1476        .dwattr $C$DW$115, DW_AT_data_member_location[DW_OP_plus_uconst 0x0]
    1477        .dwattr $C$DW$115, DW_AT_accessibility(DW_ACCESS_public)
    1478        .dwattr $C$DW$115, DW_AT_decl_file("/usr/lib/ti/pru-software-support-package/include/am335x/pr
    1479        .dwattr $C$DW$115, DW_AT_decl_line(0xde)
    1480        .dwattr $C$DW$115, DW_AT_decl_column(0x0d)
    1481$C$DW$116       .dwtag  DW_TAG_member
    1482        .dwattr $C$DW$116, DW_AT_type(*$C$DW$T$11)
    1483        .dwattr $C$DW$116, DW_AT_name("XFR_SHIFT_EN")
    1484        .dwattr $C$DW$116, DW_AT_TI_symbol_name("XFR_SHIFT_EN")
    1485        .dwattr $C$DW$116, DW_AT_bit_offset(0x1e), DW_AT_bit_size(0x01)
    1486        .dwattr $C$DW$116, DW_AT_data_member_location[DW_OP_plus_uconst 0x0]
    1487        .dwattr $C$DW$116, DW_AT_accessibility(DW_ACCESS_public)
    1488        .dwattr $C$DW$116, DW_AT_decl_file("/usr/lib/ti/pru-software-support-package/include/am335x/pr
    1489        .dwattr $C$DW$116, DW_AT_decl_line(0xdf)
    1490        .dwattr $C$DW$116, DW_AT_decl_column(0x0d)
    1491$C$DW$117       .dwtag  DW_TAG_member
    1492        .dwattr $C$DW$117, DW_AT_type(*$C$DW$T$11)
    1493        .dwattr $C$DW$117, DW_AT_name("rsvd2")
    1494        .dwattr $C$DW$117, DW_AT_TI_symbol_name("rsvd2")
    1495        .dwattr $C$DW$117, DW_AT_bit_offset(0x00), DW_AT_bit_size(0x1e)
    1496        .dwattr $C$DW$117, DW_AT_data_member_location[DW_OP_plus_uconst 0x0]
    1497        .dwattr $C$DW$117, DW_AT_accessibility(DW_ACCESS_public)
    1498        .dwattr $C$DW$117, DW_AT_decl_file("/usr/lib/ti/pru-software-support-package/include/am335x/pr
    1499        .dwattr $C$DW$117, DW_AT_decl_line(0xe0)
    1500        .dwattr $C$DW$117, DW_AT_decl_column(0x0d)
    1501        .dwendtag $C$DW$T$30
    1502
    1503        .dwattr $C$DW$T$30, DW_AT_decl_file("/usr/lib/ti/pru-software-support-package/include/am335x/p
    1504        .dwattr $C$DW$T$30, DW_AT_decl_line(0xdd)
    1505        .dwattr $C$DW$T$30, DW_AT_decl_column(0x13)
    1506$C$DW$T$130     .dwtag  DW_TAG_volatile_type
    1507        .dwattr $C$DW$T$130, DW_AT_type(*$C$DW$T$30)
    1508
    1509$C$DW$T$31      .dwtag  DW_TAG_structure_type
    1510        .dwattr $C$DW$T$31, DW_AT_byte_size(0x04)
    1511$C$DW$118       .dwtag  DW_TAG_member
    1512        .dwattr $C$DW$118, DW_AT_type(*$C$DW$T$11)
    1513        .dwattr $C$DW$118, DW_AT_name("PIN_MUX_SEL")
    1514        .dwattr $C$DW$118, DW_AT_TI_symbol_name("PIN_MUX_SEL")
    1515        .dwattr $C$DW$118, DW_AT_bit_offset(0x18), DW_AT_bit_size(0x08)
    1516        .dwattr $C$DW$118, DW_AT_data_member_location[DW_OP_plus_uconst 0x0]
    1517        .dwattr $C$DW$118, DW_AT_accessibility(DW_ACCESS_public)
    1518        .dwattr $C$DW$118, DW_AT_decl_file("/usr/lib/ti/pru-software-support-package/include/am335x/pr
    1519        .dwattr $C$DW$118, DW_AT_decl_line(0xec)
    1520        .dwattr $C$DW$118, DW_AT_decl_column(0x0d)
    1521$C$DW$119       .dwtag  DW_TAG_member
PRU Assembler Unix v2.1.4 Fri Apr 13 06:28:55 2018

Tools Copyright (c) 2012-2015 Texas Instruments Incorporated
main.asm                                                             PAGE   29

    1522        .dwattr $C$DW$119, DW_AT_type(*$C$DW$T$11)
    1523        .dwattr $C$DW$119, DW_AT_name("rsvd2")
    1524        .dwattr $C$DW$119, DW_AT_TI_symbol_name("rsvd2")
    1525        .dwattr $C$DW$119, DW_AT_bit_offset(0x00), DW_AT_bit_size(0x18)
    1526        .dwattr $C$DW$119, DW_AT_data_member_location[DW_OP_plus_uconst 0x0]
    1527        .dwattr $C$DW$119, DW_AT_accessibility(DW_ACCESS_public)
    1528        .dwattr $C$DW$119, DW_AT_decl_file("/usr/lib/ti/pru-software-support-package/include/am335x/pr
    1529        .dwattr $C$DW$119, DW_AT_decl_line(0xed)
    1530        .dwattr $C$DW$119, DW_AT_decl_column(0x0d)
    1531        .dwendtag $C$DW$T$31
    1532
    1533        .dwattr $C$DW$T$31, DW_AT_decl_file("/usr/lib/ti/pru-software-support-package/include/am335x/p
    1534        .dwattr $C$DW$T$31, DW_AT_decl_line(0xeb)
    1535        .dwattr $C$DW$T$31, DW_AT_decl_column(0x13)
    1536$C$DW$T$132     .dwtag  DW_TAG_volatile_type
    1537        .dwattr $C$DW$T$132, DW_AT_type(*$C$DW$T$31)
    1538
    1539$C$DW$T$35      .dwtag  DW_TAG_structure_type
    1540        .dwattr $C$DW$T$35, DW_AT_byte_size(0x44)
    1541$C$DW$120       .dwtag  DW_TAG_member
    1542        .dwattr $C$DW$120, DW_AT_type(*$C$DW$T$109)
    1543        .dwattr $C$DW$120, DW_AT_name("$P$T0")
    1544        .dwattr $C$DW$120, DW_AT_TI_symbol_name("$P$T0")
    1545        .dwattr $C$DW$120, DW_AT_data_member_location[DW_OP_plus_uconst 0x0]
    1546        .dwattr $C$DW$120, DW_AT_accessibility(DW_ACCESS_public)
    1547        .dwattr $C$DW$120, DW_AT_decl_file("/usr/lib/ti/pru-software-support-package/include/am335x/pr
    1548        .dwattr $C$DW$120, DW_AT_decl_line(0x29)
    1549        .dwattr $C$DW$120, DW_AT_decl_column(0x02)
    1550$C$DW$121       .dwtag  DW_TAG_member
    1551        .dwattr $C$DW$121, DW_AT_type(*$C$DW$T$111)
    1552        .dwattr $C$DW$121, DW_AT_name("$P$T1")
    1553        .dwattr $C$DW$121, DW_AT_TI_symbol_name("$P$T1")
    1554        .dwattr $C$DW$121, DW_AT_data_member_location[DW_OP_plus_uconst 0x4]
    1555        .dwattr $C$DW$121, DW_AT_accessibility(DW_ACCESS_public)
    1556        .dwattr $C$DW$121, DW_AT_decl_file("/usr/lib/ti/pru-software-support-package/include/am335x/pr
    1557        .dwattr $C$DW$121, DW_AT_decl_line(0x33)
    1558        .dwattr $C$DW$121, DW_AT_decl_column(0x02)
    1559$C$DW$122       .dwtag  DW_TAG_member
    1560        .dwattr $C$DW$122, DW_AT_type(*$C$DW$T$113)
    1561        .dwattr $C$DW$122, DW_AT_name("$P$T2")
    1562        .dwattr $C$DW$122, DW_AT_TI_symbol_name("$P$T2")
    1563        .dwattr $C$DW$122, DW_AT_data_member_location[DW_OP_plus_uconst 0x8]
    1564        .dwattr $C$DW$122, DW_AT_accessibility(DW_ACCESS_public)
    1565        .dwattr $C$DW$122, DW_AT_decl_file("/usr/lib/ti/pru-software-support-package/include/am335x/pr
    1566        .dwattr $C$DW$122, DW_AT_decl_line(0x41)
    1567        .dwattr $C$DW$122, DW_AT_decl_column(0x02)
    1568$C$DW$123       .dwtag  DW_TAG_member
    1569        .dwattr $C$DW$123, DW_AT_type(*$C$DW$T$115)
    1570        .dwattr $C$DW$123, DW_AT_name("$P$T3")
    1571        .dwattr $C$DW$123, DW_AT_TI_symbol_name("$P$T3")
    1572        .dwattr $C$DW$123, DW_AT_data_member_location[DW_OP_plus_uconst 0xc]
    1573        .dwattr $C$DW$123, DW_AT_accessibility(DW_ACCESS_public)
    1574        .dwattr $C$DW$123, DW_AT_decl_file("/usr/lib/ti/pru-software-support-package/include/am335x/pr
    1575        .dwattr $C$DW$123, DW_AT_decl_line(0x54)
    1576        .dwattr $C$DW$123, DW_AT_decl_column(0x02)
PRU Assembler Unix v2.1.4 Fri Apr 13 06:28:55 2018

Tools Copyright (c) 2012-2015 Texas Instruments Incorporated
main.asm                                                             PAGE   30

    1577$C$DW$124       .dwtag  DW_TAG_member
    1578        .dwattr $C$DW$124, DW_AT_type(*$C$DW$T$117)
    1579        .dwattr $C$DW$124, DW_AT_name("$P$T4")
    1580        .dwattr $C$DW$124, DW_AT_TI_symbol_name("$P$T4")
    1581        .dwattr $C$DW$124, DW_AT_data_member_location[DW_OP_plus_uconst 0x10]
    1582        .dwattr $C$DW$124, DW_AT_accessibility(DW_ACCESS_public)
    1583        .dwattr $C$DW$124, DW_AT_decl_file("/usr/lib/ti/pru-software-support-package/include/am335x/pr
    1584        .dwattr $C$DW$124, DW_AT_decl_line(0x67)
    1585        .dwattr $C$DW$124, DW_AT_decl_column(0x02)
    1586$C$DW$125       .dwtag  DW_TAG_member
    1587        .dwattr $C$DW$125, DW_AT_type(*$C$DW$T$119)
    1588        .dwattr $C$DW$125, DW_AT_name("$P$T5")
    1589        .dwattr $C$DW$125, DW_AT_TI_symbol_name("$P$T5")
    1590        .dwattr $C$DW$125, DW_AT_data_member_location[DW_OP_plus_uconst 0x14]
    1591        .dwattr $C$DW$125, DW_AT_accessibility(DW_ACCESS_public)
    1592        .dwattr $C$DW$125, DW_AT_decl_file("/usr/lib/ti/pru-software-support-package/include/am335x/pr
    1593        .dwattr $C$DW$125, DW_AT_decl_line(0x83)
    1594        .dwattr $C$DW$125, DW_AT_decl_column(0x02)
    1595$C$DW$126       .dwtag  DW_TAG_member
    1596        .dwattr $C$DW$126, DW_AT_type(*$C$DW$T$121)
    1597        .dwattr $C$DW$126, DW_AT_name("$P$T6")
    1598        .dwattr $C$DW$126, DW_AT_TI_symbol_name("$P$T6")
    1599        .dwattr $C$DW$126, DW_AT_data_member_location[DW_OP_plus_uconst 0x18]
    1600        .dwattr $C$DW$126, DW_AT_accessibility(DW_ACCESS_public)
    1601        .dwattr $C$DW$126, DW_AT_decl_file("/usr/lib/ti/pru-software-support-package/include/am335x/pr
    1602        .dwattr $C$DW$126, DW_AT_decl_line(0x92)
    1603        .dwattr $C$DW$126, DW_AT_decl_column(0x02)
    1604$C$DW$127       .dwtag  DW_TAG_member
    1605        .dwattr $C$DW$127, DW_AT_type(*$C$DW$T$123)
    1606        .dwattr $C$DW$127, DW_AT_name("$P$T7")
    1607        .dwattr $C$DW$127, DW_AT_TI_symbol_name("$P$T7")
    1608        .dwattr $C$DW$127, DW_AT_data_member_location[DW_OP_plus_uconst 0x1c]
    1609        .dwattr $C$DW$127, DW_AT_accessibility(DW_ACCESS_public)
    1610        .dwattr $C$DW$127, DW_AT_decl_file("/usr/lib/ti/pru-software-support-package/include/am335x/pr
    1611        .dwattr $C$DW$127, DW_AT_decl_line(0xa0)
    1612        .dwattr $C$DW$127, DW_AT_decl_column(0x02)
    1613$C$DW$128       .dwtag  DW_TAG_member
    1614        .dwattr $C$DW$128, DW_AT_type(*$C$DW$T$125)
    1615        .dwattr $C$DW$128, DW_AT_name("$P$T8")
    1616        .dwattr $C$DW$128, DW_AT_TI_symbol_name("$P$T8")
    1617        .dwattr $C$DW$128, DW_AT_data_member_location[DW_OP_plus_uconst 0x20]
    1618        .dwattr $C$DW$128, DW_AT_accessibility(DW_ACCESS_public)
    1619        .dwattr $C$DW$128, DW_AT_decl_file("/usr/lib/ti/pru-software-support-package/include/am335x/pr
    1620        .dwattr $C$DW$128, DW_AT_decl_line(0xaf)
    1621        .dwattr $C$DW$128, DW_AT_decl_column(0x02)
    1622$C$DW$129       .dwtag  DW_TAG_member
    1623        .dwattr $C$DW$129, DW_AT_type(*$C$DW$T$32)
    1624        .dwattr $C$DW$129, DW_AT_name("rsvd24")
    1625        .dwattr $C$DW$129, DW_AT_TI_symbol_name("rsvd24")
    1626        .dwattr $C$DW$129, DW_AT_data_member_location[DW_OP_plus_uconst 0x24]
    1627        .dwattr $C$DW$129, DW_AT_accessibility(DW_ACCESS_public)
    1628        .dwattr $C$DW$129, DW_AT_decl_file("/usr/lib/ti/pru-software-support-package/include/am335x/pr
    1629        .dwattr $C$DW$129, DW_AT_decl_line(0xbc)
    1630        .dwattr $C$DW$129, DW_AT_decl_column(0x0b)
    1631$C$DW$130       .dwtag  DW_TAG_member
PRU Assembler Unix v2.1.4 Fri Apr 13 06:28:55 2018

Tools Copyright (c) 2012-2015 Texas Instruments Incorporated
main.asm                                                             PAGE   31

    1632        .dwattr $C$DW$130, DW_AT_type(*$C$DW$T$127)
    1633        .dwattr $C$DW$130, DW_AT_name("$P$T9")
    1634        .dwattr $C$DW$130, DW_AT_TI_symbol_name("$P$T9")
    1635        .dwattr $C$DW$130, DW_AT_data_member_location[DW_OP_plus_uconst 0x28]
    1636        .dwattr $C$DW$130, DW_AT_accessibility(DW_ACCESS_public)
    1637        .dwattr $C$DW$130, DW_AT_decl_file("/usr/lib/ti/pru-software-support-package/include/am335x/pr
    1638        .dwattr $C$DW$130, DW_AT_decl_line(0xc0)
    1639        .dwattr $C$DW$130, DW_AT_decl_column(0x02)
    1640$C$DW$131       .dwtag  DW_TAG_member
    1641        .dwattr $C$DW$131, DW_AT_type(*$C$DW$T$33)
    1642        .dwattr $C$DW$131, DW_AT_name("rsvd2c")
    1643        .dwattr $C$DW$131, DW_AT_TI_symbol_name("rsvd2c")
    1644        .dwattr $C$DW$131, DW_AT_data_member_location[DW_OP_plus_uconst 0x2c]
    1645        .dwattr $C$DW$131, DW_AT_accessibility(DW_ACCESS_public)
    1646        .dwattr $C$DW$131, DW_AT_decl_file("/usr/lib/ti/pru-software-support-package/include/am335x/pr
    1647        .dwattr $C$DW$131, DW_AT_decl_line(0xcb)
    1648        .dwattr $C$DW$131, DW_AT_decl_column(0x0b)
    1649$C$DW$132       .dwtag  DW_TAG_member
    1650        .dwattr $C$DW$132, DW_AT_type(*$C$DW$T$129)
    1651        .dwattr $C$DW$132, DW_AT_name("$P$T10")
    1652        .dwattr $C$DW$132, DW_AT_TI_symbol_name("$P$T10")
    1653        .dwattr $C$DW$132, DW_AT_data_member_location[DW_OP_plus_uconst 0x30]
    1654        .dwattr $C$DW$132, DW_AT_accessibility(DW_ACCESS_public)
    1655        .dwattr $C$DW$132, DW_AT_decl_file("/usr/lib/ti/pru-software-support-package/include/am335x/pr
    1656        .dwattr $C$DW$132, DW_AT_decl_line(0xcf)
    1657        .dwattr $C$DW$132, DW_AT_decl_column(0x02)
    1658$C$DW$133       .dwtag  DW_TAG_member
    1659        .dwattr $C$DW$133, DW_AT_type(*$C$DW$T$131)
    1660        .dwattr $C$DW$133, DW_AT_name("$P$T11")
    1661        .dwattr $C$DW$133, DW_AT_TI_symbol_name("$P$T11")
    1662        .dwattr $C$DW$133, DW_AT_data_member_location[DW_OP_plus_uconst 0x34]
    1663        .dwattr $C$DW$133, DW_AT_accessibility(DW_ACCESS_public)
    1664        .dwattr $C$DW$133, DW_AT_decl_file("/usr/lib/ti/pru-software-support-package/include/am335x/pr
    1665        .dwattr $C$DW$133, DW_AT_decl_line(0xda)
    1666        .dwattr $C$DW$133, DW_AT_decl_column(0x02)
    1667$C$DW$134       .dwtag  DW_TAG_member
    1668        .dwattr $C$DW$134, DW_AT_type(*$C$DW$T$34)
    1669        .dwattr $C$DW$134, DW_AT_name("rsvd38")
    1670        .dwattr $C$DW$134, DW_AT_TI_symbol_name("rsvd38")
    1671        .dwattr $C$DW$134, DW_AT_data_member_location[DW_OP_plus_uconst 0x38]
    1672        .dwattr $C$DW$134, DW_AT_accessibility(DW_ACCESS_public)
    1673        .dwattr $C$DW$134, DW_AT_decl_file("/usr/lib/ti/pru-software-support-package/include/am335x/pr
    1674        .dwattr $C$DW$134, DW_AT_decl_line(0xe5)
    1675        .dwattr $C$DW$134, DW_AT_decl_column(0x0b)
    1676$C$DW$135       .dwtag  DW_TAG_member
    1677        .dwattr $C$DW$135, DW_AT_type(*$C$DW$T$133)
    1678        .dwattr $C$DW$135, DW_AT_name("$P$T12")
    1679        .dwattr $C$DW$135, DW_AT_TI_symbol_name("$P$T12")
    1680        .dwattr $C$DW$135, DW_AT_data_member_location[DW_OP_plus_uconst 0x40]
    1681        .dwattr $C$DW$135, DW_AT_accessibility(DW_ACCESS_public)
    1682        .dwattr $C$DW$135, DW_AT_decl_file("/usr/lib/ti/pru-software-support-package/include/am335x/pr
    1683        .dwattr $C$DW$135, DW_AT_decl_line(0xe8)
    1684        .dwattr $C$DW$135, DW_AT_decl_column(0x02)
    1685        .dwendtag $C$DW$T$35
    1686
PRU Assembler Unix v2.1.4 Fri Apr 13 06:28:55 2018

Tools Copyright (c) 2012-2015 Texas Instruments Incorporated
main.asm                                                             PAGE   32

    1687        .dwattr $C$DW$T$35, DW_AT_decl_file("/usr/lib/ti/pru-software-support-package/include/am335x/p
    1688        .dwattr $C$DW$T$35, DW_AT_decl_line(0x26)
    1689        .dwattr $C$DW$T$35, DW_AT_decl_column(0x10)
    1690$C$DW$T$290     .dwtag  DW_TAG_typedef, DW_AT_name("pruCfg")
    1691        .dwattr $C$DW$T$290, DW_AT_type(*$C$DW$T$35)
    1692        .dwattr $C$DW$T$290, DW_AT_language(DW_LANG_C)
    1693        .dwattr $C$DW$T$290, DW_AT_decl_file("/usr/lib/ti/pru-software-support-package/include/am335x/
    1694        .dwattr $C$DW$T$290, DW_AT_decl_line(0xf0)
    1695        .dwattr $C$DW$T$290, DW_AT_decl_column(0x03)
    1696$C$DW$T$291     .dwtag  DW_TAG_volatile_type
    1697        .dwattr $C$DW$T$291, DW_AT_type(*$C$DW$T$290)
    1698
    1699$C$DW$T$36      .dwtag  DW_TAG_structure_type
    1700        .dwattr $C$DW$T$36, DW_AT_byte_size(0x04)
    1701$C$DW$136       .dwtag  DW_TAG_member
    1702        .dwattr $C$DW$136, DW_AT_type(*$C$DW$T$11)
    1703        .dwattr $C$DW$136, DW_AT_name("REV_MINOR")
    1704        .dwattr $C$DW$136, DW_AT_TI_symbol_name("REV_MINOR")
    1705        .dwattr $C$DW$136, DW_AT_bit_offset(0x1a), DW_AT_bit_size(0x06)
    1706        .dwattr $C$DW$136, DW_AT_data_member_location[DW_OP_plus_uconst 0x0]
    1707        .dwattr $C$DW$136, DW_AT_accessibility(DW_ACCESS_public)
    1708        .dwattr $C$DW$136, DW_AT_decl_file("/usr/lib/ti/pru-software-support-package/include/am335x/pr
    1709        .dwattr $C$DW$136, DW_AT_decl_line(0x2d)
    1710        .dwattr $C$DW$136, DW_AT_decl_column(0x0d)
    1711$C$DW$137       .dwtag  DW_TAG_member
    1712        .dwattr $C$DW$137, DW_AT_type(*$C$DW$T$11)
    1713        .dwattr $C$DW$137, DW_AT_name("REV_CUSTOM")
    1714        .dwattr $C$DW$137, DW_AT_TI_symbol_name("REV_CUSTOM")
    1715        .dwattr $C$DW$137, DW_AT_bit_offset(0x18), DW_AT_bit_size(0x02)
    1716        .dwattr $C$DW$137, DW_AT_data_member_location[DW_OP_plus_uconst 0x0]
    1717        .dwattr $C$DW$137, DW_AT_accessibility(DW_ACCESS_public)
    1718        .dwattr $C$DW$137, DW_AT_decl_file("/usr/lib/ti/pru-software-support-package/include/am335x/pr
    1719        .dwattr $C$DW$137, DW_AT_decl_line(0x2e)
    1720        .dwattr $C$DW$137, DW_AT_decl_column(0x0d)
    1721$C$DW$138       .dwtag  DW_TAG_member
    1722        .dwattr $C$DW$138, DW_AT_type(*$C$DW$T$11)
    1723        .dwattr $C$DW$138, DW_AT_name("REV_MAJOR")
    1724        .dwattr $C$DW$138, DW_AT_TI_symbol_name("REV_MAJOR")
    1725        .dwattr $C$DW$138, DW_AT_bit_offset(0x15), DW_AT_bit_size(0x03)
    1726        .dwattr $C$DW$138, DW_AT_data_member_location[DW_OP_plus_uconst 0x0]
    1727        .dwattr $C$DW$138, DW_AT_accessibility(DW_ACCESS_public)
    1728        .dwattr $C$DW$138, DW_AT_decl_file("/usr/lib/ti/pru-software-support-package/include/am335x/pr
    1729        .dwattr $C$DW$138, DW_AT_decl_line(0x2f)
    1730        .dwattr $C$DW$138, DW_AT_decl_column(0x0d)
    1731$C$DW$139       .dwtag  DW_TAG_member
    1732        .dwattr $C$DW$139, DW_AT_type(*$C$DW$T$11)
    1733        .dwattr $C$DW$139, DW_AT_name("REV_RTL")
    1734        .dwattr $C$DW$139, DW_AT_TI_symbol_name("REV_RTL")
    1735        .dwattr $C$DW$139, DW_AT_bit_offset(0x10), DW_AT_bit_size(0x05)
    1736        .dwattr $C$DW$139, DW_AT_data_member_location[DW_OP_plus_uconst 0x0]
    1737        .dwattr $C$DW$139, DW_AT_accessibility(DW_ACCESS_public)
    1738        .dwattr $C$DW$139, DW_AT_decl_file("/usr/lib/ti/pru-software-support-package/include/am335x/pr
    1739        .dwattr $C$DW$139, DW_AT_decl_line(0x30)
    1740        .dwattr $C$DW$139, DW_AT_decl_column(0x0d)
    1741$C$DW$140       .dwtag  DW_TAG_member
PRU Assembler Unix v2.1.4 Fri Apr 13 06:28:55 2018

Tools Copyright (c) 2012-2015 Texas Instruments Incorporated
main.asm                                                             PAGE   33

    1742        .dwattr $C$DW$140, DW_AT_type(*$C$DW$T$11)
    1743        .dwattr $C$DW$140, DW_AT_name("REV_MODULE")
    1744        .dwattr $C$DW$140, DW_AT_TI_symbol_name("REV_MODULE")
    1745        .dwattr $C$DW$140, DW_AT_bit_offset(0x04), DW_AT_bit_size(0x0c)
    1746        .dwattr $C$DW$140, DW_AT_data_member_location[DW_OP_plus_uconst 0x0]
    1747        .dwattr $C$DW$140, DW_AT_accessibility(DW_ACCESS_public)
    1748        .dwattr $C$DW$140, DW_AT_decl_file("/usr/lib/ti/pru-software-support-package/include/am335x/pr
    1749        .dwattr $C$DW$140, DW_AT_decl_line(0x31)
    1750        .dwattr $C$DW$140, DW_AT_decl_column(0x0d)
    1751$C$DW$141       .dwtag  DW_TAG_member
    1752        .dwattr $C$DW$141, DW_AT_type(*$C$DW$T$11)
    1753        .dwattr $C$DW$141, DW_AT_name("rsvd28")
    1754        .dwattr $C$DW$141, DW_AT_TI_symbol_name("rsvd28")
    1755        .dwattr $C$DW$141, DW_AT_bit_offset(0x02), DW_AT_bit_size(0x02)
    1756        .dwattr $C$DW$141, DW_AT_data_member_location[DW_OP_plus_uconst 0x0]
    1757        .dwattr $C$DW$141, DW_AT_accessibility(DW_ACCESS_public)
    1758        .dwattr $C$DW$141, DW_AT_decl_file("/usr/lib/ti/pru-software-support-package/include/am335x/pr
    1759        .dwattr $C$DW$141, DW_AT_decl_line(0x32)
    1760        .dwattr $C$DW$141, DW_AT_decl_column(0x0d)
    1761$C$DW$142       .dwtag  DW_TAG_member
    1762        .dwattr $C$DW$142, DW_AT_type(*$C$DW$T$11)
    1763        .dwattr $C$DW$142, DW_AT_name("REV_SCHEME")
    1764        .dwattr $C$DW$142, DW_AT_TI_symbol_name("REV_SCHEME")
    1765        .dwattr $C$DW$142, DW_AT_bit_offset(0x00), DW_AT_bit_size(0x02)
    1766        .dwattr $C$DW$142, DW_AT_data_member_location[DW_OP_plus_uconst 0x0]
    1767        .dwattr $C$DW$142, DW_AT_accessibility(DW_ACCESS_public)
    1768        .dwattr $C$DW$142, DW_AT_decl_file("/usr/lib/ti/pru-software-support-package/include/am335x/pr
    1769        .dwattr $C$DW$142, DW_AT_decl_line(0x33)
    1770        .dwattr $C$DW$142, DW_AT_decl_column(0x0d)
    1771        .dwendtag $C$DW$T$36
    1772
    1773        .dwattr $C$DW$T$36, DW_AT_decl_file("/usr/lib/ti/pru-software-support-package/include/am335x/p
    1774        .dwattr $C$DW$T$36, DW_AT_decl_line(0x2c)
    1775        .dwattr $C$DW$T$36, DW_AT_decl_column(0x13)
    1776$C$DW$T$134     .dwtag  DW_TAG_volatile_type
    1777        .dwattr $C$DW$T$134, DW_AT_type(*$C$DW$T$36)
    1778
    1779$C$DW$T$37      .dwtag  DW_TAG_structure_type
    1780        .dwattr $C$DW$T$37, DW_AT_byte_size(0x04)
    1781$C$DW$143       .dwtag  DW_TAG_member
    1782        .dwattr $C$DW$143, DW_AT_type(*$C$DW$T$11)
    1783        .dwattr $C$DW$143, DW_AT_name("rsvd0")
    1784        .dwattr $C$DW$143, DW_AT_TI_symbol_name("rsvd0")
    1785        .dwattr $C$DW$143, DW_AT_bit_offset(0x1e), DW_AT_bit_size(0x02)
    1786        .dwattr $C$DW$143, DW_AT_data_member_location[DW_OP_plus_uconst 0x0]
    1787        .dwattr $C$DW$143, DW_AT_accessibility(DW_ACCESS_public)
    1788        .dwattr $C$DW$143, DW_AT_decl_file("/usr/lib/ti/pru-software-support-package/include/am335x/pr
    1789        .dwattr $C$DW$143, DW_AT_decl_line(0x3d)
    1790        .dwattr $C$DW$143, DW_AT_decl_column(0x0d)
    1791$C$DW$144       .dwtag  DW_TAG_member
    1792        .dwattr $C$DW$144, DW_AT_type(*$C$DW$T$11)
    1793        .dwattr $C$DW$144, DW_AT_name("NEST_MODE")
    1794        .dwattr $C$DW$144, DW_AT_TI_symbol_name("NEST_MODE")
    1795        .dwattr $C$DW$144, DW_AT_bit_offset(0x1c), DW_AT_bit_size(0x02)
    1796        .dwattr $C$DW$144, DW_AT_data_member_location[DW_OP_plus_uconst 0x0]
PRU Assembler Unix v2.1.4 Fri Apr 13 06:28:55 2018

Tools Copyright (c) 2012-2015 Texas Instruments Incorporated
main.asm                                                             PAGE   34

    1797        .dwattr $C$DW$144, DW_AT_accessibility(DW_ACCESS_public)
    1798        .dwattr $C$DW$144, DW_AT_decl_file("/usr/lib/ti/pru-software-support-package/include/am335x/pr
    1799        .dwattr $C$DW$144, DW_AT_decl_line(0x3e)
    1800        .dwattr $C$DW$144, DW_AT_decl_column(0x0d)
    1801$C$DW$145       .dwtag  DW_TAG_member
    1802        .dwattr $C$DW$145, DW_AT_type(*$C$DW$T$11)
    1803        .dwattr $C$DW$145, DW_AT_name("rsvd4")
    1804        .dwattr $C$DW$145, DW_AT_TI_symbol_name("rsvd4")
    1805        .dwattr $C$DW$145, DW_AT_bit_offset(0x00), DW_AT_bit_size(0x1c)
    1806        .dwattr $C$DW$145, DW_AT_data_member_location[DW_OP_plus_uconst 0x0]
    1807        .dwattr $C$DW$145, DW_AT_accessibility(DW_ACCESS_public)
    1808        .dwattr $C$DW$145, DW_AT_decl_file("/usr/lib/ti/pru-software-support-package/include/am335x/pr
    1809        .dwattr $C$DW$145, DW_AT_decl_line(0x3f)
    1810        .dwattr $C$DW$145, DW_AT_decl_column(0x0d)
    1811        .dwendtag $C$DW$T$37
    1812
    1813        .dwattr $C$DW$T$37, DW_AT_decl_file("/usr/lib/ti/pru-software-support-package/include/am335x/p
    1814        .dwattr $C$DW$T$37, DW_AT_decl_line(0x3c)
    1815        .dwattr $C$DW$T$37, DW_AT_decl_column(0x13)
    1816$C$DW$T$136     .dwtag  DW_TAG_volatile_type
    1817        .dwattr $C$DW$T$136, DW_AT_type(*$C$DW$T$37)
    1818
    1819$C$DW$T$38      .dwtag  DW_TAG_structure_type
    1820        .dwattr $C$DW$T$38, DW_AT_byte_size(0x04)
    1821$C$DW$146       .dwtag  DW_TAG_member
    1822        .dwattr $C$DW$146, DW_AT_type(*$C$DW$T$11)
    1823        .dwattr $C$DW$146, DW_AT_name("EN_HINT_ANY")
    1824        .dwattr $C$DW$146, DW_AT_TI_symbol_name("EN_HINT_ANY")
    1825        .dwattr $C$DW$146, DW_AT_bit_offset(0x1f), DW_AT_bit_size(0x01)
    1826        .dwattr $C$DW$146, DW_AT_data_member_location[DW_OP_plus_uconst 0x0]
    1827        .dwattr $C$DW$146, DW_AT_accessibility(DW_ACCESS_public)
    1828        .dwattr $C$DW$146, DW_AT_decl_file("/usr/lib/ti/pru-software-support-package/include/am335x/pr
    1829        .dwattr $C$DW$146, DW_AT_decl_line(0x4c)
    1830        .dwattr $C$DW$146, DW_AT_decl_column(0x0d)
    1831$C$DW$147       .dwtag  DW_TAG_member
    1832        .dwattr $C$DW$147, DW_AT_type(*$C$DW$T$11)
    1833        .dwattr $C$DW$147, DW_AT_name("rsvd1")
    1834        .dwattr $C$DW$147, DW_AT_TI_symbol_name("rsvd1")
    1835        .dwattr $C$DW$147, DW_AT_bit_offset(0x00), DW_AT_bit_size(0x1f)
    1836        .dwattr $C$DW$147, DW_AT_data_member_location[DW_OP_plus_uconst 0x0]
    1837        .dwattr $C$DW$147, DW_AT_accessibility(DW_ACCESS_public)
    1838        .dwattr $C$DW$147, DW_AT_decl_file("/usr/lib/ti/pru-software-support-package/include/am335x/pr
    1839        .dwattr $C$DW$147, DW_AT_decl_line(0x4d)
    1840        .dwattr $C$DW$147, DW_AT_decl_column(0x0d)
    1841        .dwendtag $C$DW$T$38
    1842
    1843        .dwattr $C$DW$T$38, DW_AT_decl_file("/usr/lib/ti/pru-software-support-package/include/am335x/p
    1844        .dwattr $C$DW$T$38, DW_AT_decl_line(0x4b)
    1845        .dwattr $C$DW$T$38, DW_AT_decl_column(0x13)
    1846$C$DW$T$138     .dwtag  DW_TAG_volatile_type
    1847        .dwattr $C$DW$T$138, DW_AT_type(*$C$DW$T$38)
    1848
    1849$C$DW$T$39      .dwtag  DW_TAG_structure_type
    1850        .dwattr $C$DW$T$39, DW_AT_byte_size(0x04)
    1851$C$DW$148       .dwtag  DW_TAG_member
PRU Assembler Unix v2.1.4 Fri Apr 13 06:28:55 2018

Tools Copyright (c) 2012-2015 Texas Instruments Incorporated
main.asm                                                             PAGE   35

    1852        .dwattr $C$DW$148, DW_AT_type(*$C$DW$T$11)
    1853        .dwattr $C$DW$148, DW_AT_name("GLB_NEST_LEVEL")
    1854        .dwattr $C$DW$148, DW_AT_TI_symbol_name("GLB_NEST_LEVEL")
    1855        .dwattr $C$DW$148, DW_AT_bit_offset(0x17), DW_AT_bit_size(0x09)
    1856        .dwattr $C$DW$148, DW_AT_data_member_location[DW_OP_plus_uconst 0x0]
    1857        .dwattr $C$DW$148, DW_AT_accessibility(DW_ACCESS_public)
    1858        .dwattr $C$DW$148, DW_AT_decl_file("/usr/lib/ti/pru-software-support-package/include/am335x/pr
    1859        .dwattr $C$DW$148, DW_AT_decl_line(0x5a)
    1860        .dwattr $C$DW$148, DW_AT_decl_column(0x0d)
    1861$C$DW$149       .dwtag  DW_TAG_member
    1862        .dwattr $C$DW$149, DW_AT_type(*$C$DW$T$11)
    1863        .dwattr $C$DW$149, DW_AT_name("rsvd9")
    1864        .dwattr $C$DW$149, DW_AT_TI_symbol_name("rsvd9")
    1865        .dwattr $C$DW$149, DW_AT_bit_offset(0x01), DW_AT_bit_size(0x16)
    1866        .dwattr $C$DW$149, DW_AT_data_member_location[DW_OP_plus_uconst 0x0]
    1867        .dwattr $C$DW$149, DW_AT_accessibility(DW_ACCESS_public)
    1868        .dwattr $C$DW$149, DW_AT_decl_file("/usr/lib/ti/pru-software-support-package/include/am335x/pr
    1869        .dwattr $C$DW$149, DW_AT_decl_line(0x5b)
    1870        .dwattr $C$DW$149, DW_AT_decl_column(0x0d)
    1871$C$DW$150       .dwtag  DW_TAG_member
    1872        .dwattr $C$DW$150, DW_AT_type(*$C$DW$T$11)
    1873        .dwattr $C$DW$150, DW_AT_name("AUTO_OVERRIDE")
    1874        .dwattr $C$DW$150, DW_AT_TI_symbol_name("AUTO_OVERRIDE")
    1875        .dwattr $C$DW$150, DW_AT_bit_offset(0x00), DW_AT_bit_size(0x01)
    1876        .dwattr $C$DW$150, DW_AT_data_member_location[DW_OP_plus_uconst 0x0]
    1877        .dwattr $C$DW$150, DW_AT_accessibility(DW_ACCESS_public)
    1878        .dwattr $C$DW$150, DW_AT_decl_file("/usr/lib/ti/pru-software-support-package/include/am335x/pr
    1879        .dwattr $C$DW$150, DW_AT_decl_line(0x5c)
    1880        .dwattr $C$DW$150, DW_AT_decl_column(0x0d)
    1881        .dwendtag $C$DW$T$39
    1882
    1883        .dwattr $C$DW$T$39, DW_AT_decl_file("/usr/lib/ti/pru-software-support-package/include/am335x/p
    1884        .dwattr $C$DW$T$39, DW_AT_decl_line(0x59)
    1885        .dwattr $C$DW$T$39, DW_AT_decl_column(0x13)
    1886$C$DW$T$140     .dwtag  DW_TAG_volatile_type
    1887        .dwattr $C$DW$T$140, DW_AT_type(*$C$DW$T$39)
    1888
    1889$C$DW$T$40      .dwtag  DW_TAG_structure_type
    1890        .dwattr $C$DW$T$40, DW_AT_byte_size(0x04)
    1891$C$DW$151       .dwtag  DW_TAG_member
    1892        .dwattr $C$DW$151, DW_AT_type(*$C$DW$T$11)
    1893        .dwattr $C$DW$151, DW_AT_name("STS_SET_IDX")
    1894        .dwattr $C$DW$151, DW_AT_TI_symbol_name("STS_SET_IDX")
    1895        .dwattr $C$DW$151, DW_AT_bit_offset(0x16), DW_AT_bit_size(0x0a)
    1896        .dwattr $C$DW$151, DW_AT_data_member_location[DW_OP_plus_uconst 0x0]
    1897        .dwattr $C$DW$151, DW_AT_accessibility(DW_ACCESS_public)
    1898        .dwattr $C$DW$151, DW_AT_decl_file("/usr/lib/ti/pru-software-support-package/include/am335x/pr
    1899        .dwattr $C$DW$151, DW_AT_decl_line(0x66)
    1900        .dwattr $C$DW$151, DW_AT_decl_column(0x0d)
    1901$C$DW$152       .dwtag  DW_TAG_member
    1902        .dwattr $C$DW$152, DW_AT_type(*$C$DW$T$11)
    1903        .dwattr $C$DW$152, DW_AT_name("rsvd10")
    1904        .dwattr $C$DW$152, DW_AT_TI_symbol_name("rsvd10")
    1905        .dwattr $C$DW$152, DW_AT_bit_offset(0x00), DW_AT_bit_size(0x16)
    1906        .dwattr $C$DW$152, DW_AT_data_member_location[DW_OP_plus_uconst 0x0]
PRU Assembler Unix v2.1.4 Fri Apr 13 06:28:55 2018

Tools Copyright (c) 2012-2015 Texas Instruments Incorporated
main.asm                                                             PAGE   36

    1907        .dwattr $C$DW$152, DW_AT_accessibility(DW_ACCESS_public)
    1908        .dwattr $C$DW$152, DW_AT_decl_file("/usr/lib/ti/pru-software-support-package/include/am335x/pr
    1909        .dwattr $C$DW$152, DW_AT_decl_line(0x67)
    1910        .dwattr $C$DW$152, DW_AT_decl_column(0x0d)
    1911        .dwendtag $C$DW$T$40
    1912
    1913        .dwattr $C$DW$T$40, DW_AT_decl_file("/usr/lib/ti/pru-software-support-package/include/am335x/p
    1914        .dwattr $C$DW$T$40, DW_AT_decl_line(0x65)
    1915        .dwattr $C$DW$T$40, DW_AT_decl_column(0x13)
    1916$C$DW$T$142     .dwtag  DW_TAG_volatile_type
    1917        .dwattr $C$DW$T$142, DW_AT_type(*$C$DW$T$40)
    1918
    1919$C$DW$T$41      .dwtag  DW_TAG_structure_type
    1920        .dwattr $C$DW$T$41, DW_AT_byte_size(0x04)
    1921$C$DW$153       .dwtag  DW_TAG_member
    1922        .dwattr $C$DW$153, DW_AT_type(*$C$DW$T$11)
    1923        .dwattr $C$DW$153, DW_AT_name("STS_CLR_IDX")
    1924        .dwattr $C$DW$153, DW_AT_TI_symbol_name("STS_CLR_IDX")
    1925        .dwattr $C$DW$153, DW_AT_bit_offset(0x16), DW_AT_bit_size(0x0a)
    1926        .dwattr $C$DW$153, DW_AT_data_member_location[DW_OP_plus_uconst 0x0]
    1927        .dwattr $C$DW$153, DW_AT_accessibility(DW_ACCESS_public)
    1928        .dwattr $C$DW$153, DW_AT_decl_file("/usr/lib/ti/pru-software-support-package/include/am335x/pr
    1929        .dwattr $C$DW$153, DW_AT_decl_line(0x71)
    1930        .dwattr $C$DW$153, DW_AT_decl_column(0x0d)
    1931$C$DW$154       .dwtag  DW_TAG_member
    1932        .dwattr $C$DW$154, DW_AT_type(*$C$DW$T$11)
    1933        .dwattr $C$DW$154, DW_AT_name("rsvd10")
    1934        .dwattr $C$DW$154, DW_AT_TI_symbol_name("rsvd10")
    1935        .dwattr $C$DW$154, DW_AT_bit_offset(0x00), DW_AT_bit_size(0x16)
    1936        .dwattr $C$DW$154, DW_AT_data_member_location[DW_OP_plus_uconst 0x0]
    1937        .dwattr $C$DW$154, DW_AT_accessibility(DW_ACCESS_public)
    1938        .dwattr $C$DW$154, DW_AT_decl_file("/usr/lib/ti/pru-software-support-package/include/am335x/pr
    1939        .dwattr $C$DW$154, DW_AT_decl_line(0x72)
    1940        .dwattr $C$DW$154, DW_AT_decl_column(0x0d)
    1941        .dwendtag $C$DW$T$41
    1942
    1943        .dwattr $C$DW$T$41, DW_AT_decl_file("/usr/lib/ti/pru-software-support-package/include/am335x/p
    1944        .dwattr $C$DW$T$41, DW_AT_decl_line(0x70)
    1945        .dwattr $C$DW$T$41, DW_AT_decl_column(0x13)
    1946$C$DW$T$144     .dwtag  DW_TAG_volatile_type
    1947        .dwattr $C$DW$T$144, DW_AT_type(*$C$DW$T$41)
    1948
    1949$C$DW$T$42      .dwtag  DW_TAG_structure_type
    1950        .dwattr $C$DW$T$42, DW_AT_byte_size(0x04)
    1951$C$DW$155       .dwtag  DW_TAG_member
    1952        .dwattr $C$DW$155, DW_AT_type(*$C$DW$T$11)
    1953        .dwattr $C$DW$155, DW_AT_name("EN_SET_IDX")
    1954        .dwattr $C$DW$155, DW_AT_TI_symbol_name("EN_SET_IDX")
    1955        .dwattr $C$DW$155, DW_AT_bit_offset(0x16), DW_AT_bit_size(0x0a)
    1956        .dwattr $C$DW$155, DW_AT_data_member_location[DW_OP_plus_uconst 0x0]
    1957        .dwattr $C$DW$155, DW_AT_accessibility(DW_ACCESS_public)
    1958        .dwattr $C$DW$155, DW_AT_decl_file("/usr/lib/ti/pru-software-support-package/include/am335x/pr
    1959        .dwattr $C$DW$155, DW_AT_decl_line(0x7c)
    1960        .dwattr $C$DW$155, DW_AT_decl_column(0x0d)
    1961$C$DW$156       .dwtag  DW_TAG_member
PRU Assembler Unix v2.1.4 Fri Apr 13 06:28:55 2018

Tools Copyright (c) 2012-2015 Texas Instruments Incorporated
main.asm                                                             PAGE   37

    1962        .dwattr $C$DW$156, DW_AT_type(*$C$DW$T$11)
    1963        .dwattr $C$DW$156, DW_AT_name("rsvd10")
    1964        .dwattr $C$DW$156, DW_AT_TI_symbol_name("rsvd10")
    1965        .dwattr $C$DW$156, DW_AT_bit_offset(0x00), DW_AT_bit_size(0x16)
    1966        .dwattr $C$DW$156, DW_AT_data_member_location[DW_OP_plus_uconst 0x0]
    1967        .dwattr $C$DW$156, DW_AT_accessibility(DW_ACCESS_public)
    1968        .dwattr $C$DW$156, DW_AT_decl_file("/usr/lib/ti/pru-software-support-package/include/am335x/pr
    1969        .dwattr $C$DW$156, DW_AT_decl_line(0x7d)
    1970        .dwattr $C$DW$156, DW_AT_decl_column(0x0d)
    1971        .dwendtag $C$DW$T$42
    1972
    1973        .dwattr $C$DW$T$42, DW_AT_decl_file("/usr/lib/ti/pru-software-support-package/include/am335x/p
    1974        .dwattr $C$DW$T$42, DW_AT_decl_line(0x7b)
    1975        .dwattr $C$DW$T$42, DW_AT_decl_column(0x13)
    1976$C$DW$T$146     .dwtag  DW_TAG_volatile_type
    1977        .dwattr $C$DW$T$146, DW_AT_type(*$C$DW$T$42)
    1978
    1979$C$DW$T$43      .dwtag  DW_TAG_structure_type
    1980        .dwattr $C$DW$T$43, DW_AT_byte_size(0x04)
    1981$C$DW$157       .dwtag  DW_TAG_member
    1982        .dwattr $C$DW$157, DW_AT_type(*$C$DW$T$11)
    1983        .dwattr $C$DW$157, DW_AT_name("EN_CLR_IDX")
    1984        .dwattr $C$DW$157, DW_AT_TI_symbol_name("EN_CLR_IDX")
    1985        .dwattr $C$DW$157, DW_AT_bit_offset(0x16), DW_AT_bit_size(0x0a)
    1986        .dwattr $C$DW$157, DW_AT_data_member_location[DW_OP_plus_uconst 0x0]
    1987        .dwattr $C$DW$157, DW_AT_accessibility(DW_ACCESS_public)
    1988        .dwattr $C$DW$157, DW_AT_decl_file("/usr/lib/ti/pru-software-support-package/include/am335x/pr
    1989        .dwattr $C$DW$157, DW_AT_decl_line(0x87)
    1990        .dwattr $C$DW$157, DW_AT_decl_column(0x0d)
    1991$C$DW$158       .dwtag  DW_TAG_member
    1992        .dwattr $C$DW$158, DW_AT_type(*$C$DW$T$11)
    1993        .dwattr $C$DW$158, DW_AT_name("rsvd10")
    1994        .dwattr $C$DW$158, DW_AT_TI_symbol_name("rsvd10")
    1995        .dwattr $C$DW$158, DW_AT_bit_offset(0x00), DW_AT_bit_size(0x16)
    1996        .dwattr $C$DW$158, DW_AT_data_member_location[DW_OP_plus_uconst 0x0]
    1997        .dwattr $C$DW$158, DW_AT_accessibility(DW_ACCESS_public)
    1998        .dwattr $C$DW$158, DW_AT_decl_file("/usr/lib/ti/pru-software-support-package/include/am335x/pr
    1999        .dwattr $C$DW$158, DW_AT_decl_line(0x88)
    2000        .dwattr $C$DW$158, DW_AT_decl_column(0x0d)
    2001        .dwendtag $C$DW$T$43
    2002
    2003        .dwattr $C$DW$T$43, DW_AT_decl_file("/usr/lib/ti/pru-software-support-package/include/am335x/p
    2004        .dwattr $C$DW$T$43, DW_AT_decl_line(0x86)
    2005        .dwattr $C$DW$T$43, DW_AT_decl_column(0x13)
    2006$C$DW$T$148     .dwtag  DW_TAG_volatile_type
    2007        .dwattr $C$DW$T$148, DW_AT_type(*$C$DW$T$43)
    2008
    2009$C$DW$T$44      .dwtag  DW_TAG_structure_type
    2010        .dwattr $C$DW$T$44, DW_AT_byte_size(0x04)
    2011$C$DW$159       .dwtag  DW_TAG_member
    2012        .dwattr $C$DW$159, DW_AT_type(*$C$DW$T$11)
    2013        .dwattr $C$DW$159, DW_AT_name("HINT_EN_SET_IDX")
    2014        .dwattr $C$DW$159, DW_AT_TI_symbol_name("HINT_EN_SET_IDX")
    2015        .dwattr $C$DW$159, DW_AT_bit_offset(0x1c), DW_AT_bit_size(0x04)
    2016        .dwattr $C$DW$159, DW_AT_data_member_location[DW_OP_plus_uconst 0x0]
PRU Assembler Unix v2.1.4 Fri Apr 13 06:28:55 2018

Tools Copyright (c) 2012-2015 Texas Instruments Incorporated
main.asm                                                             PAGE   38

    2017        .dwattr $C$DW$159, DW_AT_accessibility(DW_ACCESS_public)
    2018        .dwattr $C$DW$159, DW_AT_decl_file("/usr/lib/ti/pru-software-support-package/include/am335x/pr
    2019        .dwattr $C$DW$159, DW_AT_decl_line(0x95)
    2020        .dwattr $C$DW$159, DW_AT_decl_column(0x0d)
    2021$C$DW$160       .dwtag  DW_TAG_member
    2022        .dwattr $C$DW$160, DW_AT_type(*$C$DW$T$11)
    2023        .dwattr $C$DW$160, DW_AT_name("rsvd4")
    2024        .dwattr $C$DW$160, DW_AT_TI_symbol_name("rsvd4")
    2025        .dwattr $C$DW$160, DW_AT_bit_offset(0x00), DW_AT_bit_size(0x1c)
    2026        .dwattr $C$DW$160, DW_AT_data_member_location[DW_OP_plus_uconst 0x0]
    2027        .dwattr $C$DW$160, DW_AT_accessibility(DW_ACCESS_public)
    2028        .dwattr $C$DW$160, DW_AT_decl_file("/usr/lib/ti/pru-software-support-package/include/am335x/pr
    2029        .dwattr $C$DW$160, DW_AT_decl_line(0x96)
    2030        .dwattr $C$DW$160, DW_AT_decl_column(0x0d)
    2031        .dwendtag $C$DW$T$44
    2032
    2033        .dwattr $C$DW$T$44, DW_AT_decl_file("/usr/lib/ti/pru-software-support-package/include/am335x/p
    2034        .dwattr $C$DW$T$44, DW_AT_decl_line(0x94)
    2035        .dwattr $C$DW$T$44, DW_AT_decl_column(0x13)
    2036$C$DW$T$150     .dwtag  DW_TAG_volatile_type
    2037        .dwattr $C$DW$T$150, DW_AT_type(*$C$DW$T$44)
    2038
    2039$C$DW$T$45      .dwtag  DW_TAG_structure_type
    2040        .dwattr $C$DW$T$45, DW_AT_byte_size(0x04)
    2041$C$DW$161       .dwtag  DW_TAG_member
    2042        .dwattr $C$DW$161, DW_AT_type(*$C$DW$T$11)
    2043        .dwattr $C$DW$161, DW_AT_name("HINT_EN_CLR_IDX")
    2044        .dwattr $C$DW$161, DW_AT_TI_symbol_name("HINT_EN_CLR_IDX")
    2045        .dwattr $C$DW$161, DW_AT_bit_offset(0x1c), DW_AT_bit_size(0x04)
    2046        .dwattr $C$DW$161, DW_AT_data_member_location[DW_OP_plus_uconst 0x0]
    2047        .dwattr $C$DW$161, DW_AT_accessibility(DW_ACCESS_public)
    2048        .dwattr $C$DW$161, DW_AT_decl_file("/usr/lib/ti/pru-software-support-package/include/am335x/pr
    2049        .dwattr $C$DW$161, DW_AT_decl_line(0xa0)
    2050        .dwattr $C$DW$161, DW_AT_decl_column(0x0d)
    2051$C$DW$162       .dwtag  DW_TAG_member
    2052        .dwattr $C$DW$162, DW_AT_type(*$C$DW$T$11)
    2053        .dwattr $C$DW$162, DW_AT_name("rsvd4")
    2054        .dwattr $C$DW$162, DW_AT_TI_symbol_name("rsvd4")
    2055        .dwattr $C$DW$162, DW_AT_bit_offset(0x00), DW_AT_bit_size(0x1c)
    2056        .dwattr $C$DW$162, DW_AT_data_member_location[DW_OP_plus_uconst 0x0]
    2057        .dwattr $C$DW$162, DW_AT_accessibility(DW_ACCESS_public)
    2058        .dwattr $C$DW$162, DW_AT_decl_file("/usr/lib/ti/pru-software-support-package/include/am335x/pr
    2059        .dwattr $C$DW$162, DW_AT_decl_line(0xa1)
    2060        .dwattr $C$DW$162, DW_AT_decl_column(0x0d)
    2061        .dwendtag $C$DW$T$45
    2062
    2063        .dwattr $C$DW$T$45, DW_AT_decl_file("/usr/lib/ti/pru-software-support-package/include/am335x/p
    2064        .dwattr $C$DW$T$45, DW_AT_decl_line(0x9f)
    2065        .dwattr $C$DW$T$45, DW_AT_decl_column(0x13)
    2066$C$DW$T$152     .dwtag  DW_TAG_volatile_type
    2067        .dwattr $C$DW$T$152, DW_AT_type(*$C$DW$T$45)
    2068
    2069$C$DW$T$46      .dwtag  DW_TAG_structure_type
    2070        .dwattr $C$DW$T$46, DW_AT_byte_size(0x04)
    2071$C$DW$163       .dwtag  DW_TAG_member
PRU Assembler Unix v2.1.4 Fri Apr 13 06:28:55 2018

Tools Copyright (c) 2012-2015 Texas Instruments Incorporated
main.asm                                                             PAGE   39

    2072        .dwattr $C$DW$163, DW_AT_type(*$C$DW$T$11)
    2073        .dwattr $C$DW$163, DW_AT_name("GLB_PRI_INTR")
    2074        .dwattr $C$DW$163, DW_AT_TI_symbol_name("GLB_PRI_INTR")
    2075        .dwattr $C$DW$163, DW_AT_bit_offset(0x16), DW_AT_bit_size(0x0a)
    2076        .dwattr $C$DW$163, DW_AT_data_member_location[DW_OP_plus_uconst 0x0]
    2077        .dwattr $C$DW$163, DW_AT_accessibility(DW_ACCESS_public)
    2078        .dwattr $C$DW$163, DW_AT_decl_file("/usr/lib/ti/pru-software-support-package/include/am335x/pr
    2079        .dwattr $C$DW$163, DW_AT_decl_line(0xae)
    2080        .dwattr $C$DW$163, DW_AT_decl_column(0x0d)
    2081$C$DW$164       .dwtag  DW_TAG_member
    2082        .dwattr $C$DW$164, DW_AT_type(*$C$DW$T$11)
    2083        .dwattr $C$DW$164, DW_AT_name("rsvd10")
    2084        .dwattr $C$DW$164, DW_AT_TI_symbol_name("rsvd10")
    2085        .dwattr $C$DW$164, DW_AT_bit_offset(0x01), DW_AT_bit_size(0x15)
    2086        .dwattr $C$DW$164, DW_AT_data_member_location[DW_OP_plus_uconst 0x0]
    2087        .dwattr $C$DW$164, DW_AT_accessibility(DW_ACCESS_public)
    2088        .dwattr $C$DW$164, DW_AT_decl_file("/usr/lib/ti/pru-software-support-package/include/am335x/pr
    2089        .dwattr $C$DW$164, DW_AT_decl_line(0xaf)
    2090        .dwattr $C$DW$164, DW_AT_decl_column(0x0d)
    2091$C$DW$165       .dwtag  DW_TAG_member
    2092        .dwattr $C$DW$165, DW_AT_type(*$C$DW$T$11)
    2093        .dwattr $C$DW$165, DW_AT_name("GLB_NONE")
    2094        .dwattr $C$DW$165, DW_AT_TI_symbol_name("GLB_NONE")
    2095        .dwattr $C$DW$165, DW_AT_bit_offset(0x00), DW_AT_bit_size(0x01)
    2096        .dwattr $C$DW$165, DW_AT_data_member_location[DW_OP_plus_uconst 0x0]
    2097        .dwattr $C$DW$165, DW_AT_accessibility(DW_ACCESS_public)
    2098        .dwattr $C$DW$165, DW_AT_decl_file("/usr/lib/ti/pru-software-support-package/include/am335x/pr
    2099        .dwattr $C$DW$165, DW_AT_decl_line(0xb0)
    2100        .dwattr $C$DW$165, DW_AT_decl_column(0x0d)
    2101        .dwendtag $C$DW$T$46
    2102
    2103        .dwattr $C$DW$T$46, DW_AT_decl_file("/usr/lib/ti/pru-software-support-package/include/am335x/p
    2104        .dwattr $C$DW$T$46, DW_AT_decl_line(0xad)
    2105        .dwattr $C$DW$T$46, DW_AT_decl_column(0x13)
    2106$C$DW$T$154     .dwtag  DW_TAG_volatile_type
    2107        .dwattr $C$DW$T$154, DW_AT_type(*$C$DW$T$46)
    2108
    2109$C$DW$T$47      .dwtag  DW_TAG_structure_type
    2110        .dwattr $C$DW$T$47, DW_AT_byte_size(0x04)
    2111$C$DW$166       .dwtag  DW_TAG_member
    2112        .dwattr $C$DW$166, DW_AT_type(*$C$DW$T$11)
    2113        .dwattr $C$DW$166, DW_AT_name("RAW_STS_31_0")
    2114        .dwattr $C$DW$166, DW_AT_TI_symbol_name("RAW_STS_31_0")
    2115        .dwattr $C$DW$166, DW_AT_bit_offset(0x00), DW_AT_bit_size(0x20)
    2116        .dwattr $C$DW$166, DW_AT_data_member_location[DW_OP_plus_uconst 0x0]
    2117        .dwattr $C$DW$166, DW_AT_accessibility(DW_ACCESS_public)
    2118        .dwattr $C$DW$166, DW_AT_decl_file("/usr/lib/ti/pru-software-support-package/include/am335x/pr
    2119        .dwattr $C$DW$166, DW_AT_decl_line(0xbd)
    2120        .dwattr $C$DW$166, DW_AT_decl_column(0x0d)
    2121        .dwendtag $C$DW$T$47
    2122
    2123        .dwattr $C$DW$T$47, DW_AT_decl_file("/usr/lib/ti/pru-software-support-package/include/am335x/p
    2124        .dwattr $C$DW$T$47, DW_AT_decl_line(0xbc)
    2125        .dwattr $C$DW$T$47, DW_AT_decl_column(0x13)
    2126$C$DW$T$156     .dwtag  DW_TAG_volatile_type
PRU Assembler Unix v2.1.4 Fri Apr 13 06:28:55 2018

Tools Copyright (c) 2012-2015 Texas Instruments Incorporated
main.asm                                                             PAGE   40

    2127        .dwattr $C$DW$T$156, DW_AT_type(*$C$DW$T$47)
    2128
    2129$C$DW$T$48      .dwtag  DW_TAG_structure_type
    2130        .dwattr $C$DW$T$48, DW_AT_byte_size(0x04)
    2131$C$DW$167       .dwtag  DW_TAG_member
    2132        .dwattr $C$DW$167, DW_AT_type(*$C$DW$T$11)
    2133        .dwattr $C$DW$167, DW_AT_name("RAW_STS_63_32")
    2134        .dwattr $C$DW$167, DW_AT_TI_symbol_name("RAW_STS_63_32")
    2135        .dwattr $C$DW$167, DW_AT_bit_offset(0x00), DW_AT_bit_size(0x20)
    2136        .dwattr $C$DW$167, DW_AT_data_member_location[DW_OP_plus_uconst 0x0]
    2137        .dwattr $C$DW$167, DW_AT_accessibility(DW_ACCESS_public)
    2138        .dwattr $C$DW$167, DW_AT_decl_file("/usr/lib/ti/pru-software-support-package/include/am335x/pr
    2139        .dwattr $C$DW$167, DW_AT_decl_line(0xc7)
    2140        .dwattr $C$DW$167, DW_AT_decl_column(0x0d)
    2141        .dwendtag $C$DW$T$48
    2142
    2143        .dwattr $C$DW$T$48, DW_AT_decl_file("/usr/lib/ti/pru-software-support-package/include/am335x/p
    2144        .dwattr $C$DW$T$48, DW_AT_decl_line(0xc6)
    2145        .dwattr $C$DW$T$48, DW_AT_decl_column(0x13)
    2146$C$DW$T$158     .dwtag  DW_TAG_volatile_type
    2147        .dwattr $C$DW$T$158, DW_AT_type(*$C$DW$T$48)
    2148
    2149$C$DW$T$49      .dwtag  DW_TAG_structure_type
    2150        .dwattr $C$DW$T$49, DW_AT_byte_size(0x04)
    2151$C$DW$168       .dwtag  DW_TAG_member
    2152        .dwattr $C$DW$168, DW_AT_type(*$C$DW$T$11)
    2153        .dwattr $C$DW$168, DW_AT_name("ENA_STS_31_0")
    2154        .dwattr $C$DW$168, DW_AT_TI_symbol_name("ENA_STS_31_0")
    2155        .dwattr $C$DW$168, DW_AT_bit_offset(0x00), DW_AT_bit_size(0x20)
    2156        .dwattr $C$DW$168, DW_AT_data_member_location[DW_OP_plus_uconst 0x0]
    2157        .dwattr $C$DW$168, DW_AT_accessibility(DW_ACCESS_public)
    2158        .dwattr $C$DW$168, DW_AT_decl_file("/usr/lib/ti/pru-software-support-package/include/am335x/pr
    2159        .dwattr $C$DW$168, DW_AT_decl_line(0xd4)
    2160        .dwattr $C$DW$168, DW_AT_decl_column(0x0d)
    2161        .dwendtag $C$DW$T$49
    2162
    2163        .dwattr $C$DW$T$49, DW_AT_decl_file("/usr/lib/ti/pru-software-support-package/include/am335x/p
    2164        .dwattr $C$DW$T$49, DW_AT_decl_line(0xd3)
    2165        .dwattr $C$DW$T$49, DW_AT_decl_column(0x13)
    2166$C$DW$T$160     .dwtag  DW_TAG_volatile_type
    2167        .dwattr $C$DW$T$160, DW_AT_type(*$C$DW$T$49)
    2168
    2169$C$DW$T$50      .dwtag  DW_TAG_structure_type
    2170        .dwattr $C$DW$T$50, DW_AT_byte_size(0x04)
    2171$C$DW$169       .dwtag  DW_TAG_member
    2172        .dwattr $C$DW$169, DW_AT_type(*$C$DW$T$11)
    2173        .dwattr $C$DW$169, DW_AT_name("ENA_STS_63_32")
    2174        .dwattr $C$DW$169, DW_AT_TI_symbol_name("ENA_STS_63_32")
    2175        .dwattr $C$DW$169, DW_AT_bit_offset(0x00), DW_AT_bit_size(0x20)
    2176        .dwattr $C$DW$169, DW_AT_data_member_location[DW_OP_plus_uconst 0x0]
    2177        .dwattr $C$DW$169, DW_AT_accessibility(DW_ACCESS_public)
    2178        .dwattr $C$DW$169, DW_AT_decl_file("/usr/lib/ti/pru-software-support-package/include/am335x/pr
    2179        .dwattr $C$DW$169, DW_AT_decl_line(0xde)
    2180        .dwattr $C$DW$169, DW_AT_decl_column(0x0d)
    2181        .dwendtag $C$DW$T$50
PRU Assembler Unix v2.1.4 Fri Apr 13 06:28:55 2018

Tools Copyright (c) 2012-2015 Texas Instruments Incorporated
main.asm                                                             PAGE   41

    2182
    2183        .dwattr $C$DW$T$50, DW_AT_decl_file("/usr/lib/ti/pru-software-support-package/include/am335x/p
    2184        .dwattr $C$DW$T$50, DW_AT_decl_line(0xdd)
    2185        .dwattr $C$DW$T$50, DW_AT_decl_column(0x13)
    2186$C$DW$T$162     .dwtag  DW_TAG_volatile_type
    2187        .dwattr $C$DW$T$162, DW_AT_type(*$C$DW$T$50)
    2188
    2189$C$DW$T$51      .dwtag  DW_TAG_structure_type
    2190        .dwattr $C$DW$T$51, DW_AT_byte_size(0x04)
    2191$C$DW$170       .dwtag  DW_TAG_member
    2192        .dwattr $C$DW$170, DW_AT_type(*$C$DW$T$11)
    2193        .dwattr $C$DW$170, DW_AT_name("EN_SET_31_0")
    2194        .dwattr $C$DW$170, DW_AT_TI_symbol_name("EN_SET_31_0")
    2195        .dwattr $C$DW$170, DW_AT_bit_offset(0x00), DW_AT_bit_size(0x20)
    2196        .dwattr $C$DW$170, DW_AT_data_member_location[DW_OP_plus_uconst 0x0]
    2197        .dwattr $C$DW$170, DW_AT_accessibility(DW_ACCESS_public)
    2198        .dwattr $C$DW$170, DW_AT_decl_file("/usr/lib/ti/pru-software-support-package/include/am335x/pr
    2199        .dwattr $C$DW$170, DW_AT_decl_line(0xeb)
    2200        .dwattr $C$DW$170, DW_AT_decl_column(0x0d)
    2201        .dwendtag $C$DW$T$51
    2202
    2203        .dwattr $C$DW$T$51, DW_AT_decl_file("/usr/lib/ti/pru-software-support-package/include/am335x/p
    2204        .dwattr $C$DW$T$51, DW_AT_decl_line(0xea)
    2205        .dwattr $C$DW$T$51, DW_AT_decl_column(0x13)
    2206$C$DW$T$164     .dwtag  DW_TAG_volatile_type
    2207        .dwattr $C$DW$T$164, DW_AT_type(*$C$DW$T$51)
    2208
    2209$C$DW$T$52      .dwtag  DW_TAG_structure_type
    2210        .dwattr $C$DW$T$52, DW_AT_byte_size(0x04)
    2211$C$DW$171       .dwtag  DW_TAG_member
    2212        .dwattr $C$DW$171, DW_AT_type(*$C$DW$T$11)
    2213        .dwattr $C$DW$171, DW_AT_name("EN_SET_63_32")
    2214        .dwattr $C$DW$171, DW_AT_TI_symbol_name("EN_SET_63_32")
    2215        .dwattr $C$DW$171, DW_AT_bit_offset(0x00), DW_AT_bit_size(0x20)
    2216        .dwattr $C$DW$171, DW_AT_data_member_location[DW_OP_plus_uconst 0x0]
    2217        .dwattr $C$DW$171, DW_AT_accessibility(DW_ACCESS_public)
    2218        .dwattr $C$DW$171, DW_AT_decl_file("/usr/lib/ti/pru-software-support-package/include/am335x/pr
    2219        .dwattr $C$DW$171, DW_AT_decl_line(0xf5)
    2220        .dwattr $C$DW$171, DW_AT_decl_column(0x0d)
    2221        .dwendtag $C$DW$T$52
    2222
    2223        .dwattr $C$DW$T$52, DW_AT_decl_file("/usr/lib/ti/pru-software-support-package/include/am335x/p
    2224        .dwattr $C$DW$T$52, DW_AT_decl_line(0xf4)
    2225        .dwattr $C$DW$T$52, DW_AT_decl_column(0x13)
    2226$C$DW$T$166     .dwtag  DW_TAG_volatile_type
    2227        .dwattr $C$DW$T$166, DW_AT_type(*$C$DW$T$52)
    2228
    2229$C$DW$T$53      .dwtag  DW_TAG_structure_type
    2230        .dwattr $C$DW$T$53, DW_AT_byte_size(0x04)
    2231$C$DW$172       .dwtag  DW_TAG_member
    2232        .dwattr $C$DW$172, DW_AT_type(*$C$DW$T$11)
    2233        .dwattr $C$DW$172, DW_AT_name("EN_CLR_31_0")
    2234        .dwattr $C$DW$172, DW_AT_TI_symbol_name("EN_CLR_31_0")
    2235        .dwattr $C$DW$172, DW_AT_bit_offset(0x00), DW_AT_bit_size(0x20)
    2236        .dwattr $C$DW$172, DW_AT_data_member_location[DW_OP_plus_uconst 0x0]
PRU Assembler Unix v2.1.4 Fri Apr 13 06:28:55 2018

Tools Copyright (c) 2012-2015 Texas Instruments Incorporated
main.asm                                                             PAGE   42

    2237        .dwattr $C$DW$172, DW_AT_accessibility(DW_ACCESS_public)
    2238        .dwattr $C$DW$172, DW_AT_decl_file("/usr/lib/ti/pru-software-support-package/include/am335x/pr
    2239        .dwattr $C$DW$172, DW_AT_decl_line(0x102)
    2240        .dwattr $C$DW$172, DW_AT_decl_column(0x0d)
    2241        .dwendtag $C$DW$T$53
    2242
    2243        .dwattr $C$DW$T$53, DW_AT_decl_file("/usr/lib/ti/pru-software-support-package/include/am335x/p
    2244        .dwattr $C$DW$T$53, DW_AT_decl_line(0x101)
    2245        .dwattr $C$DW$T$53, DW_AT_decl_column(0x13)
    2246$C$DW$T$168     .dwtag  DW_TAG_volatile_type
    2247        .dwattr $C$DW$T$168, DW_AT_type(*$C$DW$T$53)
    2248
    2249$C$DW$T$54      .dwtag  DW_TAG_structure_type
    2250        .dwattr $C$DW$T$54, DW_AT_byte_size(0x04)
    2251$C$DW$173       .dwtag  DW_TAG_member
    2252        .dwattr $C$DW$173, DW_AT_type(*$C$DW$T$11)
    2253        .dwattr $C$DW$173, DW_AT_name("EN_CLR_63_32")
    2254        .dwattr $C$DW$173, DW_AT_TI_symbol_name("EN_CLR_63_32")
    2255        .dwattr $C$DW$173, DW_AT_bit_offset(0x00), DW_AT_bit_size(0x20)
    2256        .dwattr $C$DW$173, DW_AT_data_member_location[DW_OP_plus_uconst 0x0]
    2257        .dwattr $C$DW$173, DW_AT_accessibility(DW_ACCESS_public)
    2258        .dwattr $C$DW$173, DW_AT_decl_file("/usr/lib/ti/pru-software-support-package/include/am335x/pr
    2259        .dwattr $C$DW$173, DW_AT_decl_line(0x10c)
    2260        .dwattr $C$DW$173, DW_AT_decl_column(0x0d)
    2261        .dwendtag $C$DW$T$54
    2262
    2263        .dwattr $C$DW$T$54, DW_AT_decl_file("/usr/lib/ti/pru-software-support-package/include/am335x/p
    2264        .dwattr $C$DW$T$54, DW_AT_decl_line(0x10b)
    2265        .dwattr $C$DW$T$54, DW_AT_decl_column(0x13)
    2266$C$DW$T$170     .dwtag  DW_TAG_volatile_type
    2267        .dwattr $C$DW$T$170, DW_AT_type(*$C$DW$T$54)
    2268
    2269$C$DW$T$55      .dwtag  DW_TAG_structure_type
    2270        .dwattr $C$DW$T$55, DW_AT_byte_size(0x04)
    2271$C$DW$174       .dwtag  DW_TAG_member
    2272        .dwattr $C$DW$174, DW_AT_type(*$C$DW$T$11)
    2273        .dwattr $C$DW$174, DW_AT_name("CH_MAP_0")
    2274        .dwattr $C$DW$174, DW_AT_TI_symbol_name("CH_MAP_0")
    2275        .dwattr $C$DW$174, DW_AT_bit_offset(0x1c), DW_AT_bit_size(0x04)
    2276        .dwattr $C$DW$174, DW_AT_data_member_location[DW_OP_plus_uconst 0x0]
    2277        .dwattr $C$DW$174, DW_AT_accessibility(DW_ACCESS_public)
    2278        .dwattr $C$DW$174, DW_AT_decl_file("/usr/lib/ti/pru-software-support-package/include/am335x/pr
    2279        .dwattr $C$DW$174, DW_AT_decl_line(0x119)
    2280        .dwattr $C$DW$174, DW_AT_decl_column(0x0d)
    2281$C$DW$175       .dwtag  DW_TAG_member
    2282        .dwattr $C$DW$175, DW_AT_type(*$C$DW$T$11)
    2283        .dwattr $C$DW$175, DW_AT_name("rsvd4")
    2284        .dwattr $C$DW$175, DW_AT_TI_symbol_name("rsvd4")
    2285        .dwattr $C$DW$175, DW_AT_bit_offset(0x18), DW_AT_bit_size(0x04)
    2286        .dwattr $C$DW$175, DW_AT_data_member_location[DW_OP_plus_uconst 0x0]
    2287        .dwattr $C$DW$175, DW_AT_accessibility(DW_ACCESS_public)
    2288        .dwattr $C$DW$175, DW_AT_decl_file("/usr/lib/ti/pru-software-support-package/include/am335x/pr
    2289        .dwattr $C$DW$175, DW_AT_decl_line(0x11a)
    2290        .dwattr $C$DW$175, DW_AT_decl_column(0x0d)
    2291$C$DW$176       .dwtag  DW_TAG_member
PRU Assembler Unix v2.1.4 Fri Apr 13 06:28:55 2018

Tools Copyright (c) 2012-2015 Texas Instruments Incorporated
main.asm                                                             PAGE   43

    2292        .dwattr $C$DW$176, DW_AT_type(*$C$DW$T$11)
    2293        .dwattr $C$DW$176, DW_AT_name("CH_MAP_1")
    2294        .dwattr $C$DW$176, DW_AT_TI_symbol_name("CH_MAP_1")
    2295        .dwattr $C$DW$176, DW_AT_bit_offset(0x14), DW_AT_bit_size(0x04)
    2296        .dwattr $C$DW$176, DW_AT_data_member_location[DW_OP_plus_uconst 0x0]
    2297        .dwattr $C$DW$176, DW_AT_accessibility(DW_ACCESS_public)
    2298        .dwattr $C$DW$176, DW_AT_decl_file("/usr/lib/ti/pru-software-support-package/include/am335x/pr
    2299        .dwattr $C$DW$176, DW_AT_decl_line(0x11b)
    2300        .dwattr $C$DW$176, DW_AT_decl_column(0x0d)
    2301$C$DW$177       .dwtag  DW_TAG_member
    2302        .dwattr $C$DW$177, DW_AT_type(*$C$DW$T$11)
    2303        .dwattr $C$DW$177, DW_AT_name("rsvd12")
    2304        .dwattr $C$DW$177, DW_AT_TI_symbol_name("rsvd12")
    2305        .dwattr $C$DW$177, DW_AT_bit_offset(0x10), DW_AT_bit_size(0x04)
    2306        .dwattr $C$DW$177, DW_AT_data_member_location[DW_OP_plus_uconst 0x0]
    2307        .dwattr $C$DW$177, DW_AT_accessibility(DW_ACCESS_public)
    2308        .dwattr $C$DW$177, DW_AT_decl_file("/usr/lib/ti/pru-software-support-package/include/am335x/pr
    2309        .dwattr $C$DW$177, DW_AT_decl_line(0x11c)
    2310        .dwattr $C$DW$177, DW_AT_decl_column(0x0d)
    2311$C$DW$178       .dwtag  DW_TAG_member
    2312        .dwattr $C$DW$178, DW_AT_type(*$C$DW$T$11)
    2313        .dwattr $C$DW$178, DW_AT_name("CH_MAP_2")
    2314        .dwattr $C$DW$178, DW_AT_TI_symbol_name("CH_MAP_2")
    2315        .dwattr $C$DW$178, DW_AT_bit_offset(0x0c), DW_AT_bit_size(0x04)
    2316        .dwattr $C$DW$178, DW_AT_data_member_location[DW_OP_plus_uconst 0x0]
    2317        .dwattr $C$DW$178, DW_AT_accessibility(DW_ACCESS_public)
    2318        .dwattr $C$DW$178, DW_AT_decl_file("/usr/lib/ti/pru-software-support-package/include/am335x/pr
    2319        .dwattr $C$DW$178, DW_AT_decl_line(0x11d)
    2320        .dwattr $C$DW$178, DW_AT_decl_column(0x0d)
    2321$C$DW$179       .dwtag  DW_TAG_member
    2322        .dwattr $C$DW$179, DW_AT_type(*$C$DW$T$11)
    2323        .dwattr $C$DW$179, DW_AT_name("rsvd20")
    2324        .dwattr $C$DW$179, DW_AT_TI_symbol_name("rsvd20")
    2325        .dwattr $C$DW$179, DW_AT_bit_offset(0x08), DW_AT_bit_size(0x04)
    2326        .dwattr $C$DW$179, DW_AT_data_member_location[DW_OP_plus_uconst 0x0]
    2327        .dwattr $C$DW$179, DW_AT_accessibility(DW_ACCESS_public)
    2328        .dwattr $C$DW$179, DW_AT_decl_file("/usr/lib/ti/pru-software-support-package/include/am335x/pr
    2329        .dwattr $C$DW$179, DW_AT_decl_line(0x11e)
    2330        .dwattr $C$DW$179, DW_AT_decl_column(0x0d)
    2331$C$DW$180       .dwtag  DW_TAG_member
    2332        .dwattr $C$DW$180, DW_AT_type(*$C$DW$T$11)
    2333        .dwattr $C$DW$180, DW_AT_name("CH_MAP_3")
    2334        .dwattr $C$DW$180, DW_AT_TI_symbol_name("CH_MAP_3")
    2335        .dwattr $C$DW$180, DW_AT_bit_offset(0x04), DW_AT_bit_size(0x04)
    2336        .dwattr $C$DW$180, DW_AT_data_member_location[DW_OP_plus_uconst 0x0]
    2337        .dwattr $C$DW$180, DW_AT_accessibility(DW_ACCESS_public)
    2338        .dwattr $C$DW$180, DW_AT_decl_file("/usr/lib/ti/pru-software-support-package/include/am335x/pr
    2339        .dwattr $C$DW$180, DW_AT_decl_line(0x11f)
    2340        .dwattr $C$DW$180, DW_AT_decl_column(0x0d)
    2341$C$DW$181       .dwtag  DW_TAG_member
    2342        .dwattr $C$DW$181, DW_AT_type(*$C$DW$T$11)
    2343        .dwattr $C$DW$181, DW_AT_name("rsvd28")
    2344        .dwattr $C$DW$181, DW_AT_TI_symbol_name("rsvd28")
    2345        .dwattr $C$DW$181, DW_AT_bit_offset(0x00), DW_AT_bit_size(0x04)
    2346        .dwattr $C$DW$181, DW_AT_data_member_location[DW_OP_plus_uconst 0x0]
PRU Assembler Unix v2.1.4 Fri Apr 13 06:28:55 2018

Tools Copyright (c) 2012-2015 Texas Instruments Incorporated
main.asm                                                             PAGE   44

    2347        .dwattr $C$DW$181, DW_AT_accessibility(DW_ACCESS_public)
    2348        .dwattr $C$DW$181, DW_AT_decl_file("/usr/lib/ti/pru-software-support-package/include/am335x/pr
    2349        .dwattr $C$DW$181, DW_AT_decl_line(0x120)
    2350        .dwattr $C$DW$181, DW_AT_decl_column(0x0d)
    2351        .dwendtag $C$DW$T$55
    2352
    2353        .dwattr $C$DW$T$55, DW_AT_decl_file("/usr/lib/ti/pru-software-support-package/include/am335x/p
    2354        .dwattr $C$DW$T$55, DW_AT_decl_line(0x118)
    2355        .dwattr $C$DW$T$55, DW_AT_decl_column(0x13)
    2356$C$DW$T$172     .dwtag  DW_TAG_volatile_type
    2357        .dwattr $C$DW$T$172, DW_AT_type(*$C$DW$T$55)
    2358
    2359$C$DW$T$56      .dwtag  DW_TAG_structure_type
    2360        .dwattr $C$DW$T$56, DW_AT_byte_size(0x04)
    2361$C$DW$182       .dwtag  DW_TAG_member
    2362        .dwattr $C$DW$182, DW_AT_type(*$C$DW$T$11)
    2363        .dwattr $C$DW$182, DW_AT_name("CH_MAP_4")
    2364        .dwattr $C$DW$182, DW_AT_TI_symbol_name("CH_MAP_4")
    2365        .dwattr $C$DW$182, DW_AT_bit_offset(0x1c), DW_AT_bit_size(0x04)
    2366        .dwattr $C$DW$182, DW_AT_data_member_location[DW_OP_plus_uconst 0x0]
    2367        .dwattr $C$DW$182, DW_AT_accessibility(DW_ACCESS_public)
    2368        .dwattr $C$DW$182, DW_AT_decl_file("/usr/lib/ti/pru-software-support-package/include/am335x/pr
    2369        .dwattr $C$DW$182, DW_AT_decl_line(0x12a)
    2370        .dwattr $C$DW$182, DW_AT_decl_column(0x0d)
    2371$C$DW$183       .dwtag  DW_TAG_member
    2372        .dwattr $C$DW$183, DW_AT_type(*$C$DW$T$11)
    2373        .dwattr $C$DW$183, DW_AT_name("rsvd4")
    2374        .dwattr $C$DW$183, DW_AT_TI_symbol_name("rsvd4")
    2375        .dwattr $C$DW$183, DW_AT_bit_offset(0x18), DW_AT_bit_size(0x04)
    2376        .dwattr $C$DW$183, DW_AT_data_member_location[DW_OP_plus_uconst 0x0]
    2377        .dwattr $C$DW$183, DW_AT_accessibility(DW_ACCESS_public)
    2378        .dwattr $C$DW$183, DW_AT_decl_file("/usr/lib/ti/pru-software-support-package/include/am335x/pr
    2379        .dwattr $C$DW$183, DW_AT_decl_line(0x12b)
    2380        .dwattr $C$DW$183, DW_AT_decl_column(0x0d)
    2381$C$DW$184       .dwtag  DW_TAG_member
    2382        .dwattr $C$DW$184, DW_AT_type(*$C$DW$T$11)
    2383        .dwattr $C$DW$184, DW_AT_name("CH_MAP_5")
    2384        .dwattr $C$DW$184, DW_AT_TI_symbol_name("CH_MAP_5")
    2385        .dwattr $C$DW$184, DW_AT_bit_offset(0x14), DW_AT_bit_size(0x04)
    2386        .dwattr $C$DW$184, DW_AT_data_member_location[DW_OP_plus_uconst 0x0]
    2387        .dwattr $C$DW$184, DW_AT_accessibility(DW_ACCESS_public)
    2388        .dwattr $C$DW$184, DW_AT_decl_file("/usr/lib/ti/pru-software-support-package/include/am335x/pr
    2389        .dwattr $C$DW$184, DW_AT_decl_line(0x12c)
    2390        .dwattr $C$DW$184, DW_AT_decl_column(0x0d)
    2391$C$DW$185       .dwtag  DW_TAG_member
    2392        .dwattr $C$DW$185, DW_AT_type(*$C$DW$T$11)
    2393        .dwattr $C$DW$185, DW_AT_name("rsvd12")
    2394        .dwattr $C$DW$185, DW_AT_TI_symbol_name("rsvd12")
    2395        .dwattr $C$DW$185, DW_AT_bit_offset(0x10), DW_AT_bit_size(0x04)
    2396        .dwattr $C$DW$185, DW_AT_data_member_location[DW_OP_plus_uconst 0x0]
    2397        .dwattr $C$DW$185, DW_AT_accessibility(DW_ACCESS_public)
    2398        .dwattr $C$DW$185, DW_AT_decl_file("/usr/lib/ti/pru-software-support-package/include/am335x/pr
    2399        .dwattr $C$DW$185, DW_AT_decl_line(0x12d)
    2400        .dwattr $C$DW$185, DW_AT_decl_column(0x0d)
    2401$C$DW$186       .dwtag  DW_TAG_member
PRU Assembler Unix v2.1.4 Fri Apr 13 06:28:55 2018

Tools Copyright (c) 2012-2015 Texas Instruments Incorporated
main.asm                                                             PAGE   45

    2402        .dwattr $C$DW$186, DW_AT_type(*$C$DW$T$11)
    2403        .dwattr $C$DW$186, DW_AT_name("CH_MAP_6")
    2404        .dwattr $C$DW$186, DW_AT_TI_symbol_name("CH_MAP_6")
    2405        .dwattr $C$DW$186, DW_AT_bit_offset(0x0c), DW_AT_bit_size(0x04)
    2406        .dwattr $C$DW$186, DW_AT_data_member_location[DW_OP_plus_uconst 0x0]
    2407        .dwattr $C$DW$186, DW_AT_accessibility(DW_ACCESS_public)
    2408        .dwattr $C$DW$186, DW_AT_decl_file("/usr/lib/ti/pru-software-support-package/include/am335x/pr
    2409        .dwattr $C$DW$186, DW_AT_decl_line(0x12e)
    2410        .dwattr $C$DW$186, DW_AT_decl_column(0x0d)
    2411$C$DW$187       .dwtag  DW_TAG_member
    2412        .dwattr $C$DW$187, DW_AT_type(*$C$DW$T$11)
    2413        .dwattr $C$DW$187, DW_AT_name("rsvd20")
    2414        .dwattr $C$DW$187, DW_AT_TI_symbol_name("rsvd20")
    2415        .dwattr $C$DW$187, DW_AT_bit_offset(0x08), DW_AT_bit_size(0x04)
    2416        .dwattr $C$DW$187, DW_AT_data_member_location[DW_OP_plus_uconst 0x0]
    2417        .dwattr $C$DW$187, DW_AT_accessibility(DW_ACCESS_public)
    2418        .dwattr $C$DW$187, DW_AT_decl_file("/usr/lib/ti/pru-software-support-package/include/am335x/pr
    2419        .dwattr $C$DW$187, DW_AT_decl_line(0x12f)
    2420        .dwattr $C$DW$187, DW_AT_decl_column(0x0d)
    2421$C$DW$188       .dwtag  DW_TAG_member
    2422        .dwattr $C$DW$188, DW_AT_type(*$C$DW$T$11)
    2423        .dwattr $C$DW$188, DW_AT_name("CH_MAP_7")
    2424        .dwattr $C$DW$188, DW_AT_TI_symbol_name("CH_MAP_7")
    2425        .dwattr $C$DW$188, DW_AT_bit_offset(0x04), DW_AT_bit_size(0x04)
    2426        .dwattr $C$DW$188, DW_AT_data_member_location[DW_OP_plus_uconst 0x0]
    2427        .dwattr $C$DW$188, DW_AT_accessibility(DW_ACCESS_public)
    2428        .dwattr $C$DW$188, DW_AT_decl_file("/usr/lib/ti/pru-software-support-package/include/am335x/pr
    2429        .dwattr $C$DW$188, DW_AT_decl_line(0x130)
    2430        .dwattr $C$DW$188, DW_AT_decl_column(0x0d)
    2431$C$DW$189       .dwtag  DW_TAG_member
    2432        .dwattr $C$DW$189, DW_AT_type(*$C$DW$T$11)
    2433        .dwattr $C$DW$189, DW_AT_name("rsvd28")
    2434        .dwattr $C$DW$189, DW_AT_TI_symbol_name("rsvd28")
    2435        .dwattr $C$DW$189, DW_AT_bit_offset(0x00), DW_AT_bit_size(0x04)
    2436        .dwattr $C$DW$189, DW_AT_data_member_location[DW_OP_plus_uconst 0x0]
    2437        .dwattr $C$DW$189, DW_AT_accessibility(DW_ACCESS_public)
    2438        .dwattr $C$DW$189, DW_AT_decl_file("/usr/lib/ti/pru-software-support-package/include/am335x/pr
    2439        .dwattr $C$DW$189, DW_AT_decl_line(0x131)
    2440        .dwattr $C$DW$189, DW_AT_decl_column(0x0d)
    2441        .dwendtag $C$DW$T$56
    2442
    2443        .dwattr $C$DW$T$56, DW_AT_decl_file("/usr/lib/ti/pru-software-support-package/include/am335x/p
    2444        .dwattr $C$DW$T$56, DW_AT_decl_line(0x129)
    2445        .dwattr $C$DW$T$56, DW_AT_decl_column(0x13)
    2446$C$DW$T$174     .dwtag  DW_TAG_volatile_type
    2447        .dwattr $C$DW$T$174, DW_AT_type(*$C$DW$T$56)
    2448
    2449$C$DW$T$57      .dwtag  DW_TAG_structure_type
    2450        .dwattr $C$DW$T$57, DW_AT_byte_size(0x04)
    2451$C$DW$190       .dwtag  DW_TAG_member
    2452        .dwattr $C$DW$190, DW_AT_type(*$C$DW$T$11)
    2453        .dwattr $C$DW$190, DW_AT_name("CH_MAP_8")
    2454        .dwattr $C$DW$190, DW_AT_TI_symbol_name("CH_MAP_8")
    2455        .dwattr $C$DW$190, DW_AT_bit_offset(0x1c), DW_AT_bit_size(0x04)
    2456        .dwattr $C$DW$190, DW_AT_data_member_location[DW_OP_plus_uconst 0x0]
PRU Assembler Unix v2.1.4 Fri Apr 13 06:28:55 2018

Tools Copyright (c) 2012-2015 Texas Instruments Incorporated
main.asm                                                             PAGE   46

    2457        .dwattr $C$DW$190, DW_AT_accessibility(DW_ACCESS_public)
    2458        .dwattr $C$DW$190, DW_AT_decl_file("/usr/lib/ti/pru-software-support-package/include/am335x/pr
    2459        .dwattr $C$DW$190, DW_AT_decl_line(0x13b)
    2460        .dwattr $C$DW$190, DW_AT_decl_column(0x0d)
    2461$C$DW$191       .dwtag  DW_TAG_member
    2462        .dwattr $C$DW$191, DW_AT_type(*$C$DW$T$11)
    2463        .dwattr $C$DW$191, DW_AT_name("rsvd4")
    2464        .dwattr $C$DW$191, DW_AT_TI_symbol_name("rsvd4")
    2465        .dwattr $C$DW$191, DW_AT_bit_offset(0x18), DW_AT_bit_size(0x04)
    2466        .dwattr $C$DW$191, DW_AT_data_member_location[DW_OP_plus_uconst 0x0]
    2467        .dwattr $C$DW$191, DW_AT_accessibility(DW_ACCESS_public)
    2468        .dwattr $C$DW$191, DW_AT_decl_file("/usr/lib/ti/pru-software-support-package/include/am335x/pr
    2469        .dwattr $C$DW$191, DW_AT_decl_line(0x13c)
    2470        .dwattr $C$DW$191, DW_AT_decl_column(0x0d)
    2471$C$DW$192       .dwtag  DW_TAG_member
    2472        .dwattr $C$DW$192, DW_AT_type(*$C$DW$T$11)
    2473        .dwattr $C$DW$192, DW_AT_name("CH_MAP_9")
    2474        .dwattr $C$DW$192, DW_AT_TI_symbol_name("CH_MAP_9")
    2475        .dwattr $C$DW$192, DW_AT_bit_offset(0x14), DW_AT_bit_size(0x04)
    2476        .dwattr $C$DW$192, DW_AT_data_member_location[DW_OP_plus_uconst 0x0]
    2477        .dwattr $C$DW$192, DW_AT_accessibility(DW_ACCESS_public)
    2478        .dwattr $C$DW$192, DW_AT_decl_file("/usr/lib/ti/pru-software-support-package/include/am335x/pr
    2479        .dwattr $C$DW$192, DW_AT_decl_line(0x13d)
    2480        .dwattr $C$DW$192, DW_AT_decl_column(0x0d)
    2481$C$DW$193       .dwtag  DW_TAG_member
    2482        .dwattr $C$DW$193, DW_AT_type(*$C$DW$T$11)
    2483        .dwattr $C$DW$193, DW_AT_name("rsvd12")
    2484        .dwattr $C$DW$193, DW_AT_TI_symbol_name("rsvd12")
    2485        .dwattr $C$DW$193, DW_AT_bit_offset(0x10), DW_AT_bit_size(0x04)
    2486        .dwattr $C$DW$193, DW_AT_data_member_location[DW_OP_plus_uconst 0x0]
    2487        .dwattr $C$DW$193, DW_AT_accessibility(DW_ACCESS_public)
    2488        .dwattr $C$DW$193, DW_AT_decl_file("/usr/lib/ti/pru-software-support-package/include/am335x/pr
    2489        .dwattr $C$DW$193, DW_AT_decl_line(0x13e)
    2490        .dwattr $C$DW$193, DW_AT_decl_column(0x0d)
    2491$C$DW$194       .dwtag  DW_TAG_member
    2492        .dwattr $C$DW$194, DW_AT_type(*$C$DW$T$11)
    2493        .dwattr $C$DW$194, DW_AT_name("CH_MAP_10")
    2494        .dwattr $C$DW$194, DW_AT_TI_symbol_name("CH_MAP_10")
    2495        .dwattr $C$DW$194, DW_AT_bit_offset(0x0c), DW_AT_bit_size(0x04)
    2496        .dwattr $C$DW$194, DW_AT_data_member_location[DW_OP_plus_uconst 0x0]
    2497        .dwattr $C$DW$194, DW_AT_accessibility(DW_ACCESS_public)
    2498        .dwattr $C$DW$194, DW_AT_decl_file("/usr/lib/ti/pru-software-support-package/include/am335x/pr
    2499        .dwattr $C$DW$194, DW_AT_decl_line(0x13f)
    2500        .dwattr $C$DW$194, DW_AT_decl_column(0x0d)
    2501$C$DW$195       .dwtag  DW_TAG_member
    2502        .dwattr $C$DW$195, DW_AT_type(*$C$DW$T$11)
    2503        .dwattr $C$DW$195, DW_AT_name("rsvd20")
    2504        .dwattr $C$DW$195, DW_AT_TI_symbol_name("rsvd20")
    2505        .dwattr $C$DW$195, DW_AT_bit_offset(0x08), DW_AT_bit_size(0x04)
    2506        .dwattr $C$DW$195, DW_AT_data_member_location[DW_OP_plus_uconst 0x0]
    2507        .dwattr $C$DW$195, DW_AT_accessibility(DW_ACCESS_public)
    2508        .dwattr $C$DW$195, DW_AT_decl_file("/usr/lib/ti/pru-software-support-package/include/am335x/pr
    2509        .dwattr $C$DW$195, DW_AT_decl_line(0x140)
    2510        .dwattr $C$DW$195, DW_AT_decl_column(0x0d)
    2511$C$DW$196       .dwtag  DW_TAG_member
PRU Assembler Unix v2.1.4 Fri Apr 13 06:28:55 2018

Tools Copyright (c) 2012-2015 Texas Instruments Incorporated
main.asm                                                             PAGE   47

    2512        .dwattr $C$DW$196, DW_AT_type(*$C$DW$T$11)
    2513        .dwattr $C$DW$196, DW_AT_name("CH_MAP_11")
    2514        .dwattr $C$DW$196, DW_AT_TI_symbol_name("CH_MAP_11")
    2515        .dwattr $C$DW$196, DW_AT_bit_offset(0x04), DW_AT_bit_size(0x04)
    2516        .dwattr $C$DW$196, DW_AT_data_member_location[DW_OP_plus_uconst 0x0]
    2517        .dwattr $C$DW$196, DW_AT_accessibility(DW_ACCESS_public)
    2518        .dwattr $C$DW$196, DW_AT_decl_file("/usr/lib/ti/pru-software-support-package/include/am335x/pr
    2519        .dwattr $C$DW$196, DW_AT_decl_line(0x141)
    2520        .dwattr $C$DW$196, DW_AT_decl_column(0x0d)
    2521$C$DW$197       .dwtag  DW_TAG_member
    2522        .dwattr $C$DW$197, DW_AT_type(*$C$DW$T$11)
    2523        .dwattr $C$DW$197, DW_AT_name("rsvd28")
    2524        .dwattr $C$DW$197, DW_AT_TI_symbol_name("rsvd28")
    2525        .dwattr $C$DW$197, DW_AT_bit_offset(0x00), DW_AT_bit_size(0x04)
    2526        .dwattr $C$DW$197, DW_AT_data_member_location[DW_OP_plus_uconst 0x0]
    2527        .dwattr $C$DW$197, DW_AT_accessibility(DW_ACCESS_public)
    2528        .dwattr $C$DW$197, DW_AT_decl_file("/usr/lib/ti/pru-software-support-package/include/am335x/pr
    2529        .dwattr $C$DW$197, DW_AT_decl_line(0x142)
    2530        .dwattr $C$DW$197, DW_AT_decl_column(0x0d)
    2531        .dwendtag $C$DW$T$57
    2532
    2533        .dwattr $C$DW$T$57, DW_AT_decl_file("/usr/lib/ti/pru-software-support-package/include/am335x/p
    2534        .dwattr $C$DW$T$57, DW_AT_decl_line(0x13a)
    2535        .dwattr $C$DW$T$57, DW_AT_decl_column(0x13)
    2536$C$DW$T$176     .dwtag  DW_TAG_volatile_type
    2537        .dwattr $C$DW$T$176, DW_AT_type(*$C$DW$T$57)
    2538
    2539$C$DW$T$58      .dwtag  DW_TAG_structure_type
    2540        .dwattr $C$DW$T$58, DW_AT_byte_size(0x04)
    2541$C$DW$198       .dwtag  DW_TAG_member
    2542        .dwattr $C$DW$198, DW_AT_type(*$C$DW$T$11)
    2543        .dwattr $C$DW$198, DW_AT_name("CH_MAP_12")
    2544        .dwattr $C$DW$198, DW_AT_TI_symbol_name("CH_MAP_12")
    2545        .dwattr $C$DW$198, DW_AT_bit_offset(0x1c), DW_AT_bit_size(0x04)
    2546        .dwattr $C$DW$198, DW_AT_data_member_location[DW_OP_plus_uconst 0x0]
    2547        .dwattr $C$DW$198, DW_AT_accessibility(DW_ACCESS_public)
    2548        .dwattr $C$DW$198, DW_AT_decl_file("/usr/lib/ti/pru-software-support-package/include/am335x/pr
    2549        .dwattr $C$DW$198, DW_AT_decl_line(0x14c)
    2550        .dwattr $C$DW$198, DW_AT_decl_column(0x0d)
    2551$C$DW$199       .dwtag  DW_TAG_member
    2552        .dwattr $C$DW$199, DW_AT_type(*$C$DW$T$11)
    2553        .dwattr $C$DW$199, DW_AT_name("rsvd4")
    2554        .dwattr $C$DW$199, DW_AT_TI_symbol_name("rsvd4")
    2555        .dwattr $C$DW$199, DW_AT_bit_offset(0x18), DW_AT_bit_size(0x04)
    2556        .dwattr $C$DW$199, DW_AT_data_member_location[DW_OP_plus_uconst 0x0]
    2557        .dwattr $C$DW$199, DW_AT_accessibility(DW_ACCESS_public)
    2558        .dwattr $C$DW$199, DW_AT_decl_file("/usr/lib/ti/pru-software-support-package/include/am335x/pr
    2559        .dwattr $C$DW$199, DW_AT_decl_line(0x14d)
    2560        .dwattr $C$DW$199, DW_AT_decl_column(0x0d)
    2561$C$DW$200       .dwtag  DW_TAG_member
    2562        .dwattr $C$DW$200, DW_AT_type(*$C$DW$T$11)
    2563        .dwattr $C$DW$200, DW_AT_name("CH_MAP_13")
    2564        .dwattr $C$DW$200, DW_AT_TI_symbol_name("CH_MAP_13")
    2565        .dwattr $C$DW$200, DW_AT_bit_offset(0x14), DW_AT_bit_size(0x04)
    2566        .dwattr $C$DW$200, DW_AT_data_member_location[DW_OP_plus_uconst 0x0]
PRU Assembler Unix v2.1.4 Fri Apr 13 06:28:55 2018

Tools Copyright (c) 2012-2015 Texas Instruments Incorporated
main.asm                                                             PAGE   48

    2567        .dwattr $C$DW$200, DW_AT_accessibility(DW_ACCESS_public)
    2568        .dwattr $C$DW$200, DW_AT_decl_file("/usr/lib/ti/pru-software-support-package/include/am335x/pr
    2569        .dwattr $C$DW$200, DW_AT_decl_line(0x14e)
    2570        .dwattr $C$DW$200, DW_AT_decl_column(0x0d)
    2571$C$DW$201       .dwtag  DW_TAG_member
    2572        .dwattr $C$DW$201, DW_AT_type(*$C$DW$T$11)
    2573        .dwattr $C$DW$201, DW_AT_name("rsvd12")
    2574        .dwattr $C$DW$201, DW_AT_TI_symbol_name("rsvd12")
    2575        .dwattr $C$DW$201, DW_AT_bit_offset(0x10), DW_AT_bit_size(0x04)
    2576        .dwattr $C$DW$201, DW_AT_data_member_location[DW_OP_plus_uconst 0x0]
    2577        .dwattr $C$DW$201, DW_AT_accessibility(DW_ACCESS_public)
    2578        .dwattr $C$DW$201, DW_AT_decl_file("/usr/lib/ti/pru-software-support-package/include/am335x/pr
    2579        .dwattr $C$DW$201, DW_AT_decl_line(0x14f)
    2580        .dwattr $C$DW$201, DW_AT_decl_column(0x0d)
    2581$C$DW$202       .dwtag  DW_TAG_member
    2582        .dwattr $C$DW$202, DW_AT_type(*$C$DW$T$11)
    2583        .dwattr $C$DW$202, DW_AT_name("CH_MAP_14")
    2584        .dwattr $C$DW$202, DW_AT_TI_symbol_name("CH_MAP_14")
    2585        .dwattr $C$DW$202, DW_AT_bit_offset(0x0c), DW_AT_bit_size(0x04)
    2586        .dwattr $C$DW$202, DW_AT_data_member_location[DW_OP_plus_uconst 0x0]
    2587        .dwattr $C$DW$202, DW_AT_accessibility(DW_ACCESS_public)
    2588        .dwattr $C$DW$202, DW_AT_decl_file("/usr/lib/ti/pru-software-support-package/include/am335x/pr
    2589        .dwattr $C$DW$202, DW_AT_decl_line(0x150)
    2590        .dwattr $C$DW$202, DW_AT_decl_column(0x0d)
    2591$C$DW$203       .dwtag  DW_TAG_member
    2592        .dwattr $C$DW$203, DW_AT_type(*$C$DW$T$11)
    2593        .dwattr $C$DW$203, DW_AT_name("rsvd20")
    2594        .dwattr $C$DW$203, DW_AT_TI_symbol_name("rsvd20")
    2595        .dwattr $C$DW$203, DW_AT_bit_offset(0x08), DW_AT_bit_size(0x04)
    2596        .dwattr $C$DW$203, DW_AT_data_member_location[DW_OP_plus_uconst 0x0]
    2597        .dwattr $C$DW$203, DW_AT_accessibility(DW_ACCESS_public)
    2598        .dwattr $C$DW$203, DW_AT_decl_file("/usr/lib/ti/pru-software-support-package/include/am335x/pr
    2599        .dwattr $C$DW$203, DW_AT_decl_line(0x151)
    2600        .dwattr $C$DW$203, DW_AT_decl_column(0x0d)
    2601$C$DW$204       .dwtag  DW_TAG_member
    2602        .dwattr $C$DW$204, DW_AT_type(*$C$DW$T$11)
    2603        .dwattr $C$DW$204, DW_AT_name("CH_MAP_15")
    2604        .dwattr $C$DW$204, DW_AT_TI_symbol_name("CH_MAP_15")
    2605        .dwattr $C$DW$204, DW_AT_bit_offset(0x04), DW_AT_bit_size(0x04)
    2606        .dwattr $C$DW$204, DW_AT_data_member_location[DW_OP_plus_uconst 0x0]
    2607        .dwattr $C$DW$204, DW_AT_accessibility(DW_ACCESS_public)
    2608        .dwattr $C$DW$204, DW_AT_decl_file("/usr/lib/ti/pru-software-support-package/include/am335x/pr
    2609        .dwattr $C$DW$204, DW_AT_decl_line(0x152)
    2610        .dwattr $C$DW$204, DW_AT_decl_column(0x0d)
    2611$C$DW$205       .dwtag  DW_TAG_member
    2612        .dwattr $C$DW$205, DW_AT_type(*$C$DW$T$11)
    2613        .dwattr $C$DW$205, DW_AT_name("rsvd28")
    2614        .dwattr $C$DW$205, DW_AT_TI_symbol_name("rsvd28")
    2615        .dwattr $C$DW$205, DW_AT_bit_offset(0x00), DW_AT_bit_size(0x04)
    2616        .dwattr $C$DW$205, DW_AT_data_member_location[DW_OP_plus_uconst 0x0]
    2617        .dwattr $C$DW$205, DW_AT_accessibility(DW_ACCESS_public)
    2618        .dwattr $C$DW$205, DW_AT_decl_file("/usr/lib/ti/pru-software-support-package/include/am335x/pr
    2619        .dwattr $C$DW$205, DW_AT_decl_line(0x153)
    2620        .dwattr $C$DW$205, DW_AT_decl_column(0x0d)
    2621        .dwendtag $C$DW$T$58
PRU Assembler Unix v2.1.4 Fri Apr 13 06:28:55 2018

Tools Copyright (c) 2012-2015 Texas Instruments Incorporated
main.asm                                                             PAGE   49

    2622
    2623        .dwattr $C$DW$T$58, DW_AT_decl_file("/usr/lib/ti/pru-software-support-package/include/am335x/p
    2624        .dwattr $C$DW$T$58, DW_AT_decl_line(0x14b)
    2625        .dwattr $C$DW$T$58, DW_AT_decl_column(0x13)
    2626$C$DW$T$178     .dwtag  DW_TAG_volatile_type
    2627        .dwattr $C$DW$T$178, DW_AT_type(*$C$DW$T$58)
    2628
    2629$C$DW$T$59      .dwtag  DW_TAG_structure_type
    2630        .dwattr $C$DW$T$59, DW_AT_byte_size(0x04)
    2631$C$DW$206       .dwtag  DW_TAG_member
    2632        .dwattr $C$DW$206, DW_AT_type(*$C$DW$T$11)
    2633        .dwattr $C$DW$206, DW_AT_name("CH_MAP_16")
    2634        .dwattr $C$DW$206, DW_AT_TI_symbol_name("CH_MAP_16")
    2635        .dwattr $C$DW$206, DW_AT_bit_offset(0x1c), DW_AT_bit_size(0x04)
    2636        .dwattr $C$DW$206, DW_AT_data_member_location[DW_OP_plus_uconst 0x0]
    2637        .dwattr $C$DW$206, DW_AT_accessibility(DW_ACCESS_public)
    2638        .dwattr $C$DW$206, DW_AT_decl_file("/usr/lib/ti/pru-software-support-package/include/am335x/pr
    2639        .dwattr $C$DW$206, DW_AT_decl_line(0x15d)
    2640        .dwattr $C$DW$206, DW_AT_decl_column(0x0d)
    2641$C$DW$207       .dwtag  DW_TAG_member
    2642        .dwattr $C$DW$207, DW_AT_type(*$C$DW$T$11)
    2643        .dwattr $C$DW$207, DW_AT_name("rsvd4")
    2644        .dwattr $C$DW$207, DW_AT_TI_symbol_name("rsvd4")
    2645        .dwattr $C$DW$207, DW_AT_bit_offset(0x18), DW_AT_bit_size(0x04)
    2646        .dwattr $C$DW$207, DW_AT_data_member_location[DW_OP_plus_uconst 0x0]
    2647        .dwattr $C$DW$207, DW_AT_accessibility(DW_ACCESS_public)
    2648        .dwattr $C$DW$207, DW_AT_decl_file("/usr/lib/ti/pru-software-support-package/include/am335x/pr
    2649        .dwattr $C$DW$207, DW_AT_decl_line(0x15e)
    2650        .dwattr $C$DW$207, DW_AT_decl_column(0x0d)
    2651$C$DW$208       .dwtag  DW_TAG_member
    2652        .dwattr $C$DW$208, DW_AT_type(*$C$DW$T$11)
    2653        .dwattr $C$DW$208, DW_AT_name("CH_MAP_17")
    2654        .dwattr $C$DW$208, DW_AT_TI_symbol_name("CH_MAP_17")
    2655        .dwattr $C$DW$208, DW_AT_bit_offset(0x14), DW_AT_bit_size(0x04)
    2656        .dwattr $C$DW$208, DW_AT_data_member_location[DW_OP_plus_uconst 0x0]
    2657        .dwattr $C$DW$208, DW_AT_accessibility(DW_ACCESS_public)
    2658        .dwattr $C$DW$208, DW_AT_decl_file("/usr/lib/ti/pru-software-support-package/include/am335x/pr
    2659        .dwattr $C$DW$208, DW_AT_decl_line(0x15f)
    2660        .dwattr $C$DW$208, DW_AT_decl_column(0x0d)
    2661$C$DW$209       .dwtag  DW_TAG_member
    2662        .dwattr $C$DW$209, DW_AT_type(*$C$DW$T$11)
    2663        .dwattr $C$DW$209, DW_AT_name("rsvd12")
    2664        .dwattr $C$DW$209, DW_AT_TI_symbol_name("rsvd12")
    2665        .dwattr $C$DW$209, DW_AT_bit_offset(0x10), DW_AT_bit_size(0x04)
    2666        .dwattr $C$DW$209, DW_AT_data_member_location[DW_OP_plus_uconst 0x0]
    2667        .dwattr $C$DW$209, DW_AT_accessibility(DW_ACCESS_public)
    2668        .dwattr $C$DW$209, DW_AT_decl_file("/usr/lib/ti/pru-software-support-package/include/am335x/pr
    2669        .dwattr $C$DW$209, DW_AT_decl_line(0x160)
    2670        .dwattr $C$DW$209, DW_AT_decl_column(0x0d)
    2671$C$DW$210       .dwtag  DW_TAG_member
    2672        .dwattr $C$DW$210, DW_AT_type(*$C$DW$T$11)
    2673        .dwattr $C$DW$210, DW_AT_name("CH_MAP_18")
    2674        .dwattr $C$DW$210, DW_AT_TI_symbol_name("CH_MAP_18")
    2675        .dwattr $C$DW$210, DW_AT_bit_offset(0x0c), DW_AT_bit_size(0x04)
    2676        .dwattr $C$DW$210, DW_AT_data_member_location[DW_OP_plus_uconst 0x0]
PRU Assembler Unix v2.1.4 Fri Apr 13 06:28:55 2018

Tools Copyright (c) 2012-2015 Texas Instruments Incorporated
main.asm                                                             PAGE   50

    2677        .dwattr $C$DW$210, DW_AT_accessibility(DW_ACCESS_public)
    2678        .dwattr $C$DW$210, DW_AT_decl_file("/usr/lib/ti/pru-software-support-package/include/am335x/pr
    2679        .dwattr $C$DW$210, DW_AT_decl_line(0x161)
    2680        .dwattr $C$DW$210, DW_AT_decl_column(0x0d)
    2681$C$DW$211       .dwtag  DW_TAG_member
    2682        .dwattr $C$DW$211, DW_AT_type(*$C$DW$T$11)
    2683        .dwattr $C$DW$211, DW_AT_name("rsvd20")
    2684        .dwattr $C$DW$211, DW_AT_TI_symbol_name("rsvd20")
    2685        .dwattr $C$DW$211, DW_AT_bit_offset(0x08), DW_AT_bit_size(0x04)
    2686        .dwattr $C$DW$211, DW_AT_data_member_location[DW_OP_plus_uconst 0x0]
    2687        .dwattr $C$DW$211, DW_AT_accessibility(DW_ACCESS_public)
    2688        .dwattr $C$DW$211, DW_AT_decl_file("/usr/lib/ti/pru-software-support-package/include/am335x/pr
    2689        .dwattr $C$DW$211, DW_AT_decl_line(0x162)
    2690        .dwattr $C$DW$211, DW_AT_decl_column(0x0d)
    2691$C$DW$212       .dwtag  DW_TAG_member
    2692        .dwattr $C$DW$212, DW_AT_type(*$C$DW$T$11)
    2693        .dwattr $C$DW$212, DW_AT_name("CH_MAP_19")
    2694        .dwattr $C$DW$212, DW_AT_TI_symbol_name("CH_MAP_19")
    2695        .dwattr $C$DW$212, DW_AT_bit_offset(0x04), DW_AT_bit_size(0x04)
    2696        .dwattr $C$DW$212, DW_AT_data_member_location[DW_OP_plus_uconst 0x0]
    2697        .dwattr $C$DW$212, DW_AT_accessibility(DW_ACCESS_public)
    2698        .dwattr $C$DW$212, DW_AT_decl_file("/usr/lib/ti/pru-software-support-package/include/am335x/pr
    2699        .dwattr $C$DW$212, DW_AT_decl_line(0x163)
    2700        .dwattr $C$DW$212, DW_AT_decl_column(0x0d)
    2701$C$DW$213       .dwtag  DW_TAG_member
    2702        .dwattr $C$DW$213, DW_AT_type(*$C$DW$T$11)
    2703        .dwattr $C$DW$213, DW_AT_name("rsvd28")
    2704        .dwattr $C$DW$213, DW_AT_TI_symbol_name("rsvd28")
    2705        .dwattr $C$DW$213, DW_AT_bit_offset(0x00), DW_AT_bit_size(0x04)
    2706        .dwattr $C$DW$213, DW_AT_data_member_location[DW_OP_plus_uconst 0x0]
    2707        .dwattr $C$DW$213, DW_AT_accessibility(DW_ACCESS_public)
    2708        .dwattr $C$DW$213, DW_AT_decl_file("/usr/lib/ti/pru-software-support-package/include/am335x/pr
    2709        .dwattr $C$DW$213, DW_AT_decl_line(0x164)
    2710        .dwattr $C$DW$213, DW_AT_decl_column(0x0d)
    2711        .dwendtag $C$DW$T$59
    2712
    2713        .dwattr $C$DW$T$59, DW_AT_decl_file("/usr/lib/ti/pru-software-support-package/include/am335x/p
    2714        .dwattr $C$DW$T$59, DW_AT_decl_line(0x15c)
    2715        .dwattr $C$DW$T$59, DW_AT_decl_column(0x13)
    2716$C$DW$T$180     .dwtag  DW_TAG_volatile_type
    2717        .dwattr $C$DW$T$180, DW_AT_type(*$C$DW$T$59)
    2718
    2719$C$DW$T$60      .dwtag  DW_TAG_structure_type
    2720        .dwattr $C$DW$T$60, DW_AT_byte_size(0x04)
    2721$C$DW$214       .dwtag  DW_TAG_member
    2722        .dwattr $C$DW$214, DW_AT_type(*$C$DW$T$11)
    2723        .dwattr $C$DW$214, DW_AT_name("CH_MAP_20")
    2724        .dwattr $C$DW$214, DW_AT_TI_symbol_name("CH_MAP_20")
    2725        .dwattr $C$DW$214, DW_AT_bit_offset(0x1c), DW_AT_bit_size(0x04)
    2726        .dwattr $C$DW$214, DW_AT_data_member_location[DW_OP_plus_uconst 0x0]
    2727        .dwattr $C$DW$214, DW_AT_accessibility(DW_ACCESS_public)
    2728        .dwattr $C$DW$214, DW_AT_decl_file("/usr/lib/ti/pru-software-support-package/include/am335x/pr
    2729        .dwattr $C$DW$214, DW_AT_decl_line(0x16e)
    2730        .dwattr $C$DW$214, DW_AT_decl_column(0x0d)
    2731$C$DW$215       .dwtag  DW_TAG_member
PRU Assembler Unix v2.1.4 Fri Apr 13 06:28:55 2018

Tools Copyright (c) 2012-2015 Texas Instruments Incorporated
main.asm                                                             PAGE   51

    2732        .dwattr $C$DW$215, DW_AT_type(*$C$DW$T$11)
    2733        .dwattr $C$DW$215, DW_AT_name("rsvd4")
    2734        .dwattr $C$DW$215, DW_AT_TI_symbol_name("rsvd4")
    2735        .dwattr $C$DW$215, DW_AT_bit_offset(0x18), DW_AT_bit_size(0x04)
    2736        .dwattr $C$DW$215, DW_AT_data_member_location[DW_OP_plus_uconst 0x0]
    2737        .dwattr $C$DW$215, DW_AT_accessibility(DW_ACCESS_public)
    2738        .dwattr $C$DW$215, DW_AT_decl_file("/usr/lib/ti/pru-software-support-package/include/am335x/pr
    2739        .dwattr $C$DW$215, DW_AT_decl_line(0x16f)
    2740        .dwattr $C$DW$215, DW_AT_decl_column(0x0d)
    2741$C$DW$216       .dwtag  DW_TAG_member
    2742        .dwattr $C$DW$216, DW_AT_type(*$C$DW$T$11)
    2743        .dwattr $C$DW$216, DW_AT_name("CH_MAP_21")
    2744        .dwattr $C$DW$216, DW_AT_TI_symbol_name("CH_MAP_21")
    2745        .dwattr $C$DW$216, DW_AT_bit_offset(0x14), DW_AT_bit_size(0x04)
    2746        .dwattr $C$DW$216, DW_AT_data_member_location[DW_OP_plus_uconst 0x0]
    2747        .dwattr $C$DW$216, DW_AT_accessibility(DW_ACCESS_public)
    2748        .dwattr $C$DW$216, DW_AT_decl_file("/usr/lib/ti/pru-software-support-package/include/am335x/pr
    2749        .dwattr $C$DW$216, DW_AT_decl_line(0x170)
    2750        .dwattr $C$DW$216, DW_AT_decl_column(0x0d)
    2751$C$DW$217       .dwtag  DW_TAG_member
    2752        .dwattr $C$DW$217, DW_AT_type(*$C$DW$T$11)
    2753        .dwattr $C$DW$217, DW_AT_name("rsvd12")
    2754        .dwattr $C$DW$217, DW_AT_TI_symbol_name("rsvd12")
    2755        .dwattr $C$DW$217, DW_AT_bit_offset(0x10), DW_AT_bit_size(0x04)
    2756        .dwattr $C$DW$217, DW_AT_data_member_location[DW_OP_plus_uconst 0x0]
    2757        .dwattr $C$DW$217, DW_AT_accessibility(DW_ACCESS_public)
    2758        .dwattr $C$DW$217, DW_AT_decl_file("/usr/lib/ti/pru-software-support-package/include/am335x/pr
    2759        .dwattr $C$DW$217, DW_AT_decl_line(0x171)
    2760        .dwattr $C$DW$217, DW_AT_decl_column(0x0d)
    2761$C$DW$218       .dwtag  DW_TAG_member
    2762        .dwattr $C$DW$218, DW_AT_type(*$C$DW$T$11)
    2763        .dwattr $C$DW$218, DW_AT_name("CH_MAP_22")
    2764        .dwattr $C$DW$218, DW_AT_TI_symbol_name("CH_MAP_22")
    2765        .dwattr $C$DW$218, DW_AT_bit_offset(0x0c), DW_AT_bit_size(0x04)
    2766        .dwattr $C$DW$218, DW_AT_data_member_location[DW_OP_plus_uconst 0x0]
    2767        .dwattr $C$DW$218, DW_AT_accessibility(DW_ACCESS_public)
    2768        .dwattr $C$DW$218, DW_AT_decl_file("/usr/lib/ti/pru-software-support-package/include/am335x/pr
    2769        .dwattr $C$DW$218, DW_AT_decl_line(0x172)
    2770        .dwattr $C$DW$218, DW_AT_decl_column(0x0d)
    2771$C$DW$219       .dwtag  DW_TAG_member
    2772        .dwattr $C$DW$219, DW_AT_type(*$C$DW$T$11)
    2773        .dwattr $C$DW$219, DW_AT_name("rsvd20")
    2774        .dwattr $C$DW$219, DW_AT_TI_symbol_name("rsvd20")
    2775        .dwattr $C$DW$219, DW_AT_bit_offset(0x08), DW_AT_bit_size(0x04)
    2776        .dwattr $C$DW$219, DW_AT_data_member_location[DW_OP_plus_uconst 0x0]
    2777        .dwattr $C$DW$219, DW_AT_accessibility(DW_ACCESS_public)
    2778        .dwattr $C$DW$219, DW_AT_decl_file("/usr/lib/ti/pru-software-support-package/include/am335x/pr
    2779        .dwattr $C$DW$219, DW_AT_decl_line(0x173)
    2780        .dwattr $C$DW$219, DW_AT_decl_column(0x0d)
    2781$C$DW$220       .dwtag  DW_TAG_member
    2782        .dwattr $C$DW$220, DW_AT_type(*$C$DW$T$11)
    2783        .dwattr $C$DW$220, DW_AT_name("CH_MAP_23")
    2784        .dwattr $C$DW$220, DW_AT_TI_symbol_name("CH_MAP_23")
    2785        .dwattr $C$DW$220, DW_AT_bit_offset(0x04), DW_AT_bit_size(0x04)
    2786        .dwattr $C$DW$220, DW_AT_data_member_location[DW_OP_plus_uconst 0x0]
PRU Assembler Unix v2.1.4 Fri Apr 13 06:28:55 2018

Tools Copyright (c) 2012-2015 Texas Instruments Incorporated
main.asm                                                             PAGE   52

    2787        .dwattr $C$DW$220, DW_AT_accessibility(DW_ACCESS_public)
    2788        .dwattr $C$DW$220, DW_AT_decl_file("/usr/lib/ti/pru-software-support-package/include/am335x/pr
    2789        .dwattr $C$DW$220, DW_AT_decl_line(0x174)
    2790        .dwattr $C$DW$220, DW_AT_decl_column(0x0d)
    2791$C$DW$221       .dwtag  DW_TAG_member
    2792        .dwattr $C$DW$221, DW_AT_type(*$C$DW$T$11)
    2793        .dwattr $C$DW$221, DW_AT_name("rsvd28")
    2794        .dwattr $C$DW$221, DW_AT_TI_symbol_name("rsvd28")
    2795        .dwattr $C$DW$221, DW_AT_bit_offset(0x00), DW_AT_bit_size(0x04)
    2796        .dwattr $C$DW$221, DW_AT_data_member_location[DW_OP_plus_uconst 0x0]
    2797        .dwattr $C$DW$221, DW_AT_accessibility(DW_ACCESS_public)
    2798        .dwattr $C$DW$221, DW_AT_decl_file("/usr/lib/ti/pru-software-support-package/include/am335x/pr
    2799        .dwattr $C$DW$221, DW_AT_decl_line(0x175)
    2800        .dwattr $C$DW$221, DW_AT_decl_column(0x0d)
    2801        .dwendtag $C$DW$T$60
    2802
    2803        .dwattr $C$DW$T$60, DW_AT_decl_file("/usr/lib/ti/pru-software-support-package/include/am335x/p
    2804        .dwattr $C$DW$T$60, DW_AT_decl_line(0x16d)
    2805        .dwattr $C$DW$T$60, DW_AT_decl_column(0x13)
    2806$C$DW$T$182     .dwtag  DW_TAG_volatile_type
    2807        .dwattr $C$DW$T$182, DW_AT_type(*$C$DW$T$60)
    2808
    2809$C$DW$T$61      .dwtag  DW_TAG_structure_type
    2810        .dwattr $C$DW$T$61, DW_AT_byte_size(0x04)
    2811$C$DW$222       .dwtag  DW_TAG_member
    2812        .dwattr $C$DW$222, DW_AT_type(*$C$DW$T$11)
    2813        .dwattr $C$DW$222, DW_AT_name("CH_MAP_24")
    2814        .dwattr $C$DW$222, DW_AT_TI_symbol_name("CH_MAP_24")
    2815        .dwattr $C$DW$222, DW_AT_bit_offset(0x1c), DW_AT_bit_size(0x04)
    2816        .dwattr $C$DW$222, DW_AT_data_member_location[DW_OP_plus_uconst 0x0]
    2817        .dwattr $C$DW$222, DW_AT_accessibility(DW_ACCESS_public)
    2818        .dwattr $C$DW$222, DW_AT_decl_file("/usr/lib/ti/pru-software-support-package/include/am335x/pr
    2819        .dwattr $C$DW$222, DW_AT_decl_line(0x17f)
    2820        .dwattr $C$DW$222, DW_AT_decl_column(0x0d)
    2821$C$DW$223       .dwtag  DW_TAG_member
    2822        .dwattr $C$DW$223, DW_AT_type(*$C$DW$T$11)
    2823        .dwattr $C$DW$223, DW_AT_name("rsvd4")
    2824        .dwattr $C$DW$223, DW_AT_TI_symbol_name("rsvd4")
    2825        .dwattr $C$DW$223, DW_AT_bit_offset(0x18), DW_AT_bit_size(0x04)
    2826        .dwattr $C$DW$223, DW_AT_data_member_location[DW_OP_plus_uconst 0x0]
    2827        .dwattr $C$DW$223, DW_AT_accessibility(DW_ACCESS_public)
    2828        .dwattr $C$DW$223, DW_AT_decl_file("/usr/lib/ti/pru-software-support-package/include/am335x/pr
    2829        .dwattr $C$DW$223, DW_AT_decl_line(0x180)
    2830        .dwattr $C$DW$223, DW_AT_decl_column(0x0d)
    2831$C$DW$224       .dwtag  DW_TAG_member
    2832        .dwattr $C$DW$224, DW_AT_type(*$C$DW$T$11)
    2833        .dwattr $C$DW$224, DW_AT_name("CH_MAP_25")
    2834        .dwattr $C$DW$224, DW_AT_TI_symbol_name("CH_MAP_25")
    2835        .dwattr $C$DW$224, DW_AT_bit_offset(0x14), DW_AT_bit_size(0x04)
    2836        .dwattr $C$DW$224, DW_AT_data_member_location[DW_OP_plus_uconst 0x0]
    2837        .dwattr $C$DW$224, DW_AT_accessibility(DW_ACCESS_public)
    2838        .dwattr $C$DW$224, DW_AT_decl_file("/usr/lib/ti/pru-software-support-package/include/am335x/pr
    2839        .dwattr $C$DW$224, DW_AT_decl_line(0x181)
    2840        .dwattr $C$DW$224, DW_AT_decl_column(0x0d)
    2841$C$DW$225       .dwtag  DW_TAG_member
PRU Assembler Unix v2.1.4 Fri Apr 13 06:28:55 2018

Tools Copyright (c) 2012-2015 Texas Instruments Incorporated
main.asm                                                             PAGE   53

    2842        .dwattr $C$DW$225, DW_AT_type(*$C$DW$T$11)
    2843        .dwattr $C$DW$225, DW_AT_name("rsvd12")
    2844        .dwattr $C$DW$225, DW_AT_TI_symbol_name("rsvd12")
    2845        .dwattr $C$DW$225, DW_AT_bit_offset(0x10), DW_AT_bit_size(0x04)
    2846        .dwattr $C$DW$225, DW_AT_data_member_location[DW_OP_plus_uconst 0x0]
    2847        .dwattr $C$DW$225, DW_AT_accessibility(DW_ACCESS_public)
    2848        .dwattr $C$DW$225, DW_AT_decl_file("/usr/lib/ti/pru-software-support-package/include/am335x/pr
    2849        .dwattr $C$DW$225, DW_AT_decl_line(0x182)
    2850        .dwattr $C$DW$225, DW_AT_decl_column(0x0d)
    2851$C$DW$226       .dwtag  DW_TAG_member
    2852        .dwattr $C$DW$226, DW_AT_type(*$C$DW$T$11)
    2853        .dwattr $C$DW$226, DW_AT_name("CH_MAP_26")
    2854        .dwattr $C$DW$226, DW_AT_TI_symbol_name("CH_MAP_26")
    2855        .dwattr $C$DW$226, DW_AT_bit_offset(0x0c), DW_AT_bit_size(0x04)
    2856        .dwattr $C$DW$226, DW_AT_data_member_location[DW_OP_plus_uconst 0x0]
    2857        .dwattr $C$DW$226, DW_AT_accessibility(DW_ACCESS_public)
    2858        .dwattr $C$DW$226, DW_AT_decl_file("/usr/lib/ti/pru-software-support-package/include/am335x/pr
    2859        .dwattr $C$DW$226, DW_AT_decl_line(0x183)
    2860        .dwattr $C$DW$226, DW_AT_decl_column(0x0d)
    2861$C$DW$227       .dwtag  DW_TAG_member
    2862        .dwattr $C$DW$227, DW_AT_type(*$C$DW$T$11)
    2863        .dwattr $C$DW$227, DW_AT_name("rsvd20")
    2864        .dwattr $C$DW$227, DW_AT_TI_symbol_name("rsvd20")
    2865        .dwattr $C$DW$227, DW_AT_bit_offset(0x08), DW_AT_bit_size(0x04)
    2866        .dwattr $C$DW$227, DW_AT_data_member_location[DW_OP_plus_uconst 0x0]
    2867        .dwattr $C$DW$227, DW_AT_accessibility(DW_ACCESS_public)
    2868        .dwattr $C$DW$227, DW_AT_decl_file("/usr/lib/ti/pru-software-support-package/include/am335x/pr
    2869        .dwattr $C$DW$227, DW_AT_decl_line(0x184)
    2870        .dwattr $C$DW$227, DW_AT_decl_column(0x0d)
    2871$C$DW$228       .dwtag  DW_TAG_member
    2872        .dwattr $C$DW$228, DW_AT_type(*$C$DW$T$11)
    2873        .dwattr $C$DW$228, DW_AT_name("CH_MAP_27")
    2874        .dwattr $C$DW$228, DW_AT_TI_symbol_name("CH_MAP_27")
    2875        .dwattr $C$DW$228, DW_AT_bit_offset(0x04), DW_AT_bit_size(0x04)
    2876        .dwattr $C$DW$228, DW_AT_data_member_location[DW_OP_plus_uconst 0x0]
    2877        .dwattr $C$DW$228, DW_AT_accessibility(DW_ACCESS_public)
    2878        .dwattr $C$DW$228, DW_AT_decl_file("/usr/lib/ti/pru-software-support-package/include/am335x/pr
    2879        .dwattr $C$DW$228, DW_AT_decl_line(0x185)
    2880        .dwattr $C$DW$228, DW_AT_decl_column(0x0d)
    2881$C$DW$229       .dwtag  DW_TAG_member
    2882        .dwattr $C$DW$229, DW_AT_type(*$C$DW$T$11)
    2883        .dwattr $C$DW$229, DW_AT_name("rsvd28")
    2884        .dwattr $C$DW$229, DW_AT_TI_symbol_name("rsvd28")
    2885        .dwattr $C$DW$229, DW_AT_bit_offset(0x00), DW_AT_bit_size(0x04)
    2886        .dwattr $C$DW$229, DW_AT_data_member_location[DW_OP_plus_uconst 0x0]
    2887        .dwattr $C$DW$229, DW_AT_accessibility(DW_ACCESS_public)
    2888        .dwattr $C$DW$229, DW_AT_decl_file("/usr/lib/ti/pru-software-support-package/include/am335x/pr
    2889        .dwattr $C$DW$229, DW_AT_decl_line(0x186)
    2890        .dwattr $C$DW$229, DW_AT_decl_column(0x0d)
    2891        .dwendtag $C$DW$T$61
    2892
    2893        .dwattr $C$DW$T$61, DW_AT_decl_file("/usr/lib/ti/pru-software-support-package/include/am335x/p
    2894        .dwattr $C$DW$T$61, DW_AT_decl_line(0x17e)
    2895        .dwattr $C$DW$T$61, DW_AT_decl_column(0x13)
    2896$C$DW$T$184     .dwtag  DW_TAG_volatile_type
PRU Assembler Unix v2.1.4 Fri Apr 13 06:28:55 2018

Tools Copyright (c) 2012-2015 Texas Instruments Incorporated
main.asm                                                             PAGE   54

    2897        .dwattr $C$DW$T$184, DW_AT_type(*$C$DW$T$61)
    2898
    2899$C$DW$T$62      .dwtag  DW_TAG_structure_type
    2900        .dwattr $C$DW$T$62, DW_AT_byte_size(0x04)
    2901$C$DW$230       .dwtag  DW_TAG_member
    2902        .dwattr $C$DW$230, DW_AT_type(*$C$DW$T$11)
    2903        .dwattr $C$DW$230, DW_AT_name("CH_MAP_28")
    2904        .dwattr $C$DW$230, DW_AT_TI_symbol_name("CH_MAP_28")
    2905        .dwattr $C$DW$230, DW_AT_bit_offset(0x1c), DW_AT_bit_size(0x04)
    2906        .dwattr $C$DW$230, DW_AT_data_member_location[DW_OP_plus_uconst 0x0]
    2907        .dwattr $C$DW$230, DW_AT_accessibility(DW_ACCESS_public)
    2908        .dwattr $C$DW$230, DW_AT_decl_file("/usr/lib/ti/pru-software-support-package/include/am335x/pr
    2909        .dwattr $C$DW$230, DW_AT_decl_line(0x190)
    2910        .dwattr $C$DW$230, DW_AT_decl_column(0x0d)
    2911$C$DW$231       .dwtag  DW_TAG_member
    2912        .dwattr $C$DW$231, DW_AT_type(*$C$DW$T$11)
    2913        .dwattr $C$DW$231, DW_AT_name("rsvd4")
    2914        .dwattr $C$DW$231, DW_AT_TI_symbol_name("rsvd4")
    2915        .dwattr $C$DW$231, DW_AT_bit_offset(0x18), DW_AT_bit_size(0x04)
    2916        .dwattr $C$DW$231, DW_AT_data_member_location[DW_OP_plus_uconst 0x0]
    2917        .dwattr $C$DW$231, DW_AT_accessibility(DW_ACCESS_public)
    2918        .dwattr $C$DW$231, DW_AT_decl_file("/usr/lib/ti/pru-software-support-package/include/am335x/pr
    2919        .dwattr $C$DW$231, DW_AT_decl_line(0x191)
    2920        .dwattr $C$DW$231, DW_AT_decl_column(0x0d)
    2921$C$DW$232       .dwtag  DW_TAG_member
    2922        .dwattr $C$DW$232, DW_AT_type(*$C$DW$T$11)
    2923        .dwattr $C$DW$232, DW_AT_name("CH_MAP_29")
    2924        .dwattr $C$DW$232, DW_AT_TI_symbol_name("CH_MAP_29")
    2925        .dwattr $C$DW$232, DW_AT_bit_offset(0x14), DW_AT_bit_size(0x04)
    2926        .dwattr $C$DW$232, DW_AT_data_member_location[DW_OP_plus_uconst 0x0]
    2927        .dwattr $C$DW$232, DW_AT_accessibility(DW_ACCESS_public)
    2928        .dwattr $C$DW$232, DW_AT_decl_file("/usr/lib/ti/pru-software-support-package/include/am335x/pr
    2929        .dwattr $C$DW$232, DW_AT_decl_line(0x192)
    2930        .dwattr $C$DW$232, DW_AT_decl_column(0x0d)
    2931$C$DW$233       .dwtag  DW_TAG_member
    2932        .dwattr $C$DW$233, DW_AT_type(*$C$DW$T$11)
    2933        .dwattr $C$DW$233, DW_AT_name("rsvd12")
    2934        .dwattr $C$DW$233, DW_AT_TI_symbol_name("rsvd12")
    2935        .dwattr $C$DW$233, DW_AT_bit_offset(0x10), DW_AT_bit_size(0x04)
    2936        .dwattr $C$DW$233, DW_AT_data_member_location[DW_OP_plus_uconst 0x0]
    2937        .dwattr $C$DW$233, DW_AT_accessibility(DW_ACCESS_public)
    2938        .dwattr $C$DW$233, DW_AT_decl_file("/usr/lib/ti/pru-software-support-package/include/am335x/pr
    2939        .dwattr $C$DW$233, DW_AT_decl_line(0x193)
    2940        .dwattr $C$DW$233, DW_AT_decl_column(0x0d)
    2941$C$DW$234       .dwtag  DW_TAG_member
    2942        .dwattr $C$DW$234, DW_AT_type(*$C$DW$T$11)
    2943        .dwattr $C$DW$234, DW_AT_name("CH_MAP_30")
    2944        .dwattr $C$DW$234, DW_AT_TI_symbol_name("CH_MAP_30")
    2945        .dwattr $C$DW$234, DW_AT_bit_offset(0x0c), DW_AT_bit_size(0x04)
    2946        .dwattr $C$DW$234, DW_AT_data_member_location[DW_OP_plus_uconst 0x0]
    2947        .dwattr $C$DW$234, DW_AT_accessibility(DW_ACCESS_public)
    2948        .dwattr $C$DW$234, DW_AT_decl_file("/usr/lib/ti/pru-software-support-package/include/am335x/pr
    2949        .dwattr $C$DW$234, DW_AT_decl_line(0x194)
    2950        .dwattr $C$DW$234, DW_AT_decl_column(0x0d)
    2951$C$DW$235       .dwtag  DW_TAG_member
PRU Assembler Unix v2.1.4 Fri Apr 13 06:28:55 2018

Tools Copyright (c) 2012-2015 Texas Instruments Incorporated
main.asm                                                             PAGE   55

    2952        .dwattr $C$DW$235, DW_AT_type(*$C$DW$T$11)
    2953        .dwattr $C$DW$235, DW_AT_name("rsvd20")
    2954        .dwattr $C$DW$235, DW_AT_TI_symbol_name("rsvd20")
    2955        .dwattr $C$DW$235, DW_AT_bit_offset(0x08), DW_AT_bit_size(0x04)
    2956        .dwattr $C$DW$235, DW_AT_data_member_location[DW_OP_plus_uconst 0x0]
    2957        .dwattr $C$DW$235, DW_AT_accessibility(DW_ACCESS_public)
    2958        .dwattr $C$DW$235, DW_AT_decl_file("/usr/lib/ti/pru-software-support-package/include/am335x/pr
    2959        .dwattr $C$DW$235, DW_AT_decl_line(0x195)
    2960        .dwattr $C$DW$235, DW_AT_decl_column(0x0d)
    2961$C$DW$236       .dwtag  DW_TAG_member
    2962        .dwattr $C$DW$236, DW_AT_type(*$C$DW$T$11)
    2963        .dwattr $C$DW$236, DW_AT_name("CH_MAP_31")
    2964        .dwattr $C$DW$236, DW_AT_TI_symbol_name("CH_MAP_31")
    2965        .dwattr $C$DW$236, DW_AT_bit_offset(0x04), DW_AT_bit_size(0x04)
    2966        .dwattr $C$DW$236, DW_AT_data_member_location[DW_OP_plus_uconst 0x0]
    2967        .dwattr $C$DW$236, DW_AT_accessibility(DW_ACCESS_public)
    2968        .dwattr $C$DW$236, DW_AT_decl_file("/usr/lib/ti/pru-software-support-package/include/am335x/pr
    2969        .dwattr $C$DW$236, DW_AT_decl_line(0x196)
    2970        .dwattr $C$DW$236, DW_AT_decl_column(0x0d)
    2971$C$DW$237       .dwtag  DW_TAG_member
    2972        .dwattr $C$DW$237, DW_AT_type(*$C$DW$T$11)
    2973        .dwattr $C$DW$237, DW_AT_name("rsvd28")
    2974        .dwattr $C$DW$237, DW_AT_TI_symbol_name("rsvd28")
    2975        .dwattr $C$DW$237, DW_AT_bit_offset(0x00), DW_AT_bit_size(0x04)
    2976        .dwattr $C$DW$237, DW_AT_data_member_location[DW_OP_plus_uconst 0x0]
    2977        .dwattr $C$DW$237, DW_AT_accessibility(DW_ACCESS_public)
    2978        .dwattr $C$DW$237, DW_AT_decl_file("/usr/lib/ti/pru-software-support-package/include/am335x/pr
    2979        .dwattr $C$DW$237, DW_AT_decl_line(0x197)
    2980        .dwattr $C$DW$237, DW_AT_decl_column(0x0d)
    2981        .dwendtag $C$DW$T$62
    2982
    2983        .dwattr $C$DW$T$62, DW_AT_decl_file("/usr/lib/ti/pru-software-support-package/include/am335x/p
    2984        .dwattr $C$DW$T$62, DW_AT_decl_line(0x18f)
    2985        .dwattr $C$DW$T$62, DW_AT_decl_column(0x13)
    2986$C$DW$T$186     .dwtag  DW_TAG_volatile_type
    2987        .dwattr $C$DW$T$186, DW_AT_type(*$C$DW$T$62)
    2988
    2989$C$DW$T$63      .dwtag  DW_TAG_structure_type
    2990        .dwattr $C$DW$T$63, DW_AT_byte_size(0x04)
    2991$C$DW$238       .dwtag  DW_TAG_member
    2992        .dwattr $C$DW$238, DW_AT_type(*$C$DW$T$11)
    2993        .dwattr $C$DW$238, DW_AT_name("CH_MAP_32")
    2994        .dwattr $C$DW$238, DW_AT_TI_symbol_name("CH_MAP_32")
    2995        .dwattr $C$DW$238, DW_AT_bit_offset(0x1c), DW_AT_bit_size(0x04)
    2996        .dwattr $C$DW$238, DW_AT_data_member_location[DW_OP_plus_uconst 0x0]
    2997        .dwattr $C$DW$238, DW_AT_accessibility(DW_ACCESS_public)
    2998        .dwattr $C$DW$238, DW_AT_decl_file("/usr/lib/ti/pru-software-support-package/include/am335x/pr
    2999        .dwattr $C$DW$238, DW_AT_decl_line(0x1a1)
    3000        .dwattr $C$DW$238, DW_AT_decl_column(0x0d)
    3001$C$DW$239       .dwtag  DW_TAG_member
    3002        .dwattr $C$DW$239, DW_AT_type(*$C$DW$T$11)
    3003        .dwattr $C$DW$239, DW_AT_name("rsvd4")
    3004        .dwattr $C$DW$239, DW_AT_TI_symbol_name("rsvd4")
    3005        .dwattr $C$DW$239, DW_AT_bit_offset(0x18), DW_AT_bit_size(0x04)
    3006        .dwattr $C$DW$239, DW_AT_data_member_location[DW_OP_plus_uconst 0x0]
PRU Assembler Unix v2.1.4 Fri Apr 13 06:28:55 2018

Tools Copyright (c) 2012-2015 Texas Instruments Incorporated
main.asm                                                             PAGE   56

    3007        .dwattr $C$DW$239, DW_AT_accessibility(DW_ACCESS_public)
    3008        .dwattr $C$DW$239, DW_AT_decl_file("/usr/lib/ti/pru-software-support-package/include/am335x/pr
    3009        .dwattr $C$DW$239, DW_AT_decl_line(0x1a2)
    3010        .dwattr $C$DW$239, DW_AT_decl_column(0x0d)
    3011$C$DW$240       .dwtag  DW_TAG_member
    3012        .dwattr $C$DW$240, DW_AT_type(*$C$DW$T$11)
    3013        .dwattr $C$DW$240, DW_AT_name("CH_MAP_33")
    3014        .dwattr $C$DW$240, DW_AT_TI_symbol_name("CH_MAP_33")
    3015        .dwattr $C$DW$240, DW_AT_bit_offset(0x14), DW_AT_bit_size(0x04)
    3016        .dwattr $C$DW$240, DW_AT_data_member_location[DW_OP_plus_uconst 0x0]
    3017        .dwattr $C$DW$240, DW_AT_accessibility(DW_ACCESS_public)
    3018        .dwattr $C$DW$240, DW_AT_decl_file("/usr/lib/ti/pru-software-support-package/include/am335x/pr
    3019        .dwattr $C$DW$240, DW_AT_decl_line(0x1a3)
    3020        .dwattr $C$DW$240, DW_AT_decl_column(0x0d)
    3021$C$DW$241       .dwtag  DW_TAG_member
    3022        .dwattr $C$DW$241, DW_AT_type(*$C$DW$T$11)
    3023        .dwattr $C$DW$241, DW_AT_name("rsvd12")
    3024        .dwattr $C$DW$241, DW_AT_TI_symbol_name("rsvd12")
    3025        .dwattr $C$DW$241, DW_AT_bit_offset(0x10), DW_AT_bit_size(0x04)
    3026        .dwattr $C$DW$241, DW_AT_data_member_location[DW_OP_plus_uconst 0x0]
    3027        .dwattr $C$DW$241, DW_AT_accessibility(DW_ACCESS_public)
    3028        .dwattr $C$DW$241, DW_AT_decl_file("/usr/lib/ti/pru-software-support-package/include/am335x/pr
    3029        .dwattr $C$DW$241, DW_AT_decl_line(0x1a4)
    3030        .dwattr $C$DW$241, DW_AT_decl_column(0x0d)
    3031$C$DW$242       .dwtag  DW_TAG_member
    3032        .dwattr $C$DW$242, DW_AT_type(*$C$DW$T$11)
    3033        .dwattr $C$DW$242, DW_AT_name("CH_MAP_34")
    3034        .dwattr $C$DW$242, DW_AT_TI_symbol_name("CH_MAP_34")
    3035        .dwattr $C$DW$242, DW_AT_bit_offset(0x0c), DW_AT_bit_size(0x04)
    3036        .dwattr $C$DW$242, DW_AT_data_member_location[DW_OP_plus_uconst 0x0]
    3037        .dwattr $C$DW$242, DW_AT_accessibility(DW_ACCESS_public)
    3038        .dwattr $C$DW$242, DW_AT_decl_file("/usr/lib/ti/pru-software-support-package/include/am335x/pr
    3039        .dwattr $C$DW$242, DW_AT_decl_line(0x1a5)
    3040        .dwattr $C$DW$242, DW_AT_decl_column(0x0d)
    3041$C$DW$243       .dwtag  DW_TAG_member
    3042        .dwattr $C$DW$243, DW_AT_type(*$C$DW$T$11)
    3043        .dwattr $C$DW$243, DW_AT_name("rsvd20")
    3044        .dwattr $C$DW$243, DW_AT_TI_symbol_name("rsvd20")
    3045        .dwattr $C$DW$243, DW_AT_bit_offset(0x08), DW_AT_bit_size(0x04)
    3046        .dwattr $C$DW$243, DW_AT_data_member_location[DW_OP_plus_uconst 0x0]
    3047        .dwattr $C$DW$243, DW_AT_accessibility(DW_ACCESS_public)
    3048        .dwattr $C$DW$243, DW_AT_decl_file("/usr/lib/ti/pru-software-support-package/include/am335x/pr
    3049        .dwattr $C$DW$243, DW_AT_decl_line(0x1a6)
    3050        .dwattr $C$DW$243, DW_AT_decl_column(0x0d)
    3051$C$DW$244       .dwtag  DW_TAG_member
    3052        .dwattr $C$DW$244, DW_AT_type(*$C$DW$T$11)
    3053        .dwattr $C$DW$244, DW_AT_name("CH_MAP_35")
    3054        .dwattr $C$DW$244, DW_AT_TI_symbol_name("CH_MAP_35")
    3055        .dwattr $C$DW$244, DW_AT_bit_offset(0x04), DW_AT_bit_size(0x04)
    3056        .dwattr $C$DW$244, DW_AT_data_member_location[DW_OP_plus_uconst 0x0]
    3057        .dwattr $C$DW$244, DW_AT_accessibility(DW_ACCESS_public)
    3058        .dwattr $C$DW$244, DW_AT_decl_file("/usr/lib/ti/pru-software-support-package/include/am335x/pr
    3059        .dwattr $C$DW$244, DW_AT_decl_line(0x1a7)
    3060        .dwattr $C$DW$244, DW_AT_decl_column(0x0d)
    3061$C$DW$245       .dwtag  DW_TAG_member
PRU Assembler Unix v2.1.4 Fri Apr 13 06:28:55 2018

Tools Copyright (c) 2012-2015 Texas Instruments Incorporated
main.asm                                                             PAGE   57

    3062        .dwattr $C$DW$245, DW_AT_type(*$C$DW$T$11)
    3063        .dwattr $C$DW$245, DW_AT_name("rsvd28")
    3064        .dwattr $C$DW$245, DW_AT_TI_symbol_name("rsvd28")
    3065        .dwattr $C$DW$245, DW_AT_bit_offset(0x00), DW_AT_bit_size(0x04)
    3066        .dwattr $C$DW$245, DW_AT_data_member_location[DW_OP_plus_uconst 0x0]
    3067        .dwattr $C$DW$245, DW_AT_accessibility(DW_ACCESS_public)
    3068        .dwattr $C$DW$245, DW_AT_decl_file("/usr/lib/ti/pru-software-support-package/include/am335x/pr
    3069        .dwattr $C$DW$245, DW_AT_decl_line(0x1a8)
    3070        .dwattr $C$DW$245, DW_AT_decl_column(0x0d)
    3071        .dwendtag $C$DW$T$63
    3072
    3073        .dwattr $C$DW$T$63, DW_AT_decl_file("/usr/lib/ti/pru-software-support-package/include/am335x/p
    3074        .dwattr $C$DW$T$63, DW_AT_decl_line(0x1a0)
    3075        .dwattr $C$DW$T$63, DW_AT_decl_column(0x13)
    3076$C$DW$T$188     .dwtag  DW_TAG_volatile_type
    3077        .dwattr $C$DW$T$188, DW_AT_type(*$C$DW$T$63)
    3078
    3079$C$DW$T$64      .dwtag  DW_TAG_structure_type
    3080        .dwattr $C$DW$T$64, DW_AT_byte_size(0x04)
    3081$C$DW$246       .dwtag  DW_TAG_member
    3082        .dwattr $C$DW$246, DW_AT_type(*$C$DW$T$11)
    3083        .dwattr $C$DW$246, DW_AT_name("CH_MAP_36")
    3084        .dwattr $C$DW$246, DW_AT_TI_symbol_name("CH_MAP_36")
    3085        .dwattr $C$DW$246, DW_AT_bit_offset(0x1c), DW_AT_bit_size(0x04)
    3086        .dwattr $C$DW$246, DW_AT_data_member_location[DW_OP_plus_uconst 0x0]
    3087        .dwattr $C$DW$246, DW_AT_accessibility(DW_ACCESS_public)
    3088        .dwattr $C$DW$246, DW_AT_decl_file("/usr/lib/ti/pru-software-support-package/include/am335x/pr
    3089        .dwattr $C$DW$246, DW_AT_decl_line(0x1b2)
    3090        .dwattr $C$DW$246, DW_AT_decl_column(0x0d)
    3091$C$DW$247       .dwtag  DW_TAG_member
    3092        .dwattr $C$DW$247, DW_AT_type(*$C$DW$T$11)
    3093        .dwattr $C$DW$247, DW_AT_name("rsvd4")
    3094        .dwattr $C$DW$247, DW_AT_TI_symbol_name("rsvd4")
    3095        .dwattr $C$DW$247, DW_AT_bit_offset(0x18), DW_AT_bit_size(0x04)
    3096        .dwattr $C$DW$247, DW_AT_data_member_location[DW_OP_plus_uconst 0x0]
    3097        .dwattr $C$DW$247, DW_AT_accessibility(DW_ACCESS_public)
    3098        .dwattr $C$DW$247, DW_AT_decl_file("/usr/lib/ti/pru-software-support-package/include/am335x/pr
    3099        .dwattr $C$DW$247, DW_AT_decl_line(0x1b3)
    3100        .dwattr $C$DW$247, DW_AT_decl_column(0x0d)
    3101$C$DW$248       .dwtag  DW_TAG_member
    3102        .dwattr $C$DW$248, DW_AT_type(*$C$DW$T$11)
    3103        .dwattr $C$DW$248, DW_AT_name("CH_MAP_37")
    3104        .dwattr $C$DW$248, DW_AT_TI_symbol_name("CH_MAP_37")
    3105        .dwattr $C$DW$248, DW_AT_bit_offset(0x14), DW_AT_bit_size(0x04)
    3106        .dwattr $C$DW$248, DW_AT_data_member_location[DW_OP_plus_uconst 0x0]
    3107        .dwattr $C$DW$248, DW_AT_accessibility(DW_ACCESS_public)
    3108        .dwattr $C$DW$248, DW_AT_decl_file("/usr/lib/ti/pru-software-support-package/include/am335x/pr
    3109        .dwattr $C$DW$248, DW_AT_decl_line(0x1b4)
    3110        .dwattr $C$DW$248, DW_AT_decl_column(0x0d)
    3111$C$DW$249       .dwtag  DW_TAG_member
    3112        .dwattr $C$DW$249, DW_AT_type(*$C$DW$T$11)
    3113        .dwattr $C$DW$249, DW_AT_name("rsvd12")
    3114        .dwattr $C$DW$249, DW_AT_TI_symbol_name("rsvd12")
    3115        .dwattr $C$DW$249, DW_AT_bit_offset(0x10), DW_AT_bit_size(0x04)
    3116        .dwattr $C$DW$249, DW_AT_data_member_location[DW_OP_plus_uconst 0x0]
PRU Assembler Unix v2.1.4 Fri Apr 13 06:28:55 2018

Tools Copyright (c) 2012-2015 Texas Instruments Incorporated
main.asm                                                             PAGE   58

    3117        .dwattr $C$DW$249, DW_AT_accessibility(DW_ACCESS_public)
    3118        .dwattr $C$DW$249, DW_AT_decl_file("/usr/lib/ti/pru-software-support-package/include/am335x/pr
    3119        .dwattr $C$DW$249, DW_AT_decl_line(0x1b5)
    3120        .dwattr $C$DW$249, DW_AT_decl_column(0x0d)
    3121$C$DW$250       .dwtag  DW_TAG_member
    3122        .dwattr $C$DW$250, DW_AT_type(*$C$DW$T$11)
    3123        .dwattr $C$DW$250, DW_AT_name("CH_MAP_38")
    3124        .dwattr $C$DW$250, DW_AT_TI_symbol_name("CH_MAP_38")
    3125        .dwattr $C$DW$250, DW_AT_bit_offset(0x0c), DW_AT_bit_size(0x04)
    3126        .dwattr $C$DW$250, DW_AT_data_member_location[DW_OP_plus_uconst 0x0]
    3127        .dwattr $C$DW$250, DW_AT_accessibility(DW_ACCESS_public)
    3128        .dwattr $C$DW$250, DW_AT_decl_file("/usr/lib/ti/pru-software-support-package/include/am335x/pr
    3129        .dwattr $C$DW$250, DW_AT_decl_line(0x1b6)
    3130        .dwattr $C$DW$250, DW_AT_decl_column(0x0d)
    3131$C$DW$251       .dwtag  DW_TAG_member
    3132        .dwattr $C$DW$251, DW_AT_type(*$C$DW$T$11)
    3133        .dwattr $C$DW$251, DW_AT_name("rsvd20")
    3134        .dwattr $C$DW$251, DW_AT_TI_symbol_name("rsvd20")
    3135        .dwattr $C$DW$251, DW_AT_bit_offset(0x08), DW_AT_bit_size(0x04)
    3136        .dwattr $C$DW$251, DW_AT_data_member_location[DW_OP_plus_uconst 0x0]
    3137        .dwattr $C$DW$251, DW_AT_accessibility(DW_ACCESS_public)
    3138        .dwattr $C$DW$251, DW_AT_decl_file("/usr/lib/ti/pru-software-support-package/include/am335x/pr
    3139        .dwattr $C$DW$251, DW_AT_decl_line(0x1b7)
    3140        .dwattr $C$DW$251, DW_AT_decl_column(0x0d)
    3141$C$DW$252       .dwtag  DW_TAG_member
    3142        .dwattr $C$DW$252, DW_AT_type(*$C$DW$T$11)
    3143        .dwattr $C$DW$252, DW_AT_name("CH_MAP_39")
    3144        .dwattr $C$DW$252, DW_AT_TI_symbol_name("CH_MAP_39")
    3145        .dwattr $C$DW$252, DW_AT_bit_offset(0x04), DW_AT_bit_size(0x04)
    3146        .dwattr $C$DW$252, DW_AT_data_member_location[DW_OP_plus_uconst 0x0]
    3147        .dwattr $C$DW$252, DW_AT_accessibility(DW_ACCESS_public)
    3148        .dwattr $C$DW$252, DW_AT_decl_file("/usr/lib/ti/pru-software-support-package/include/am335x/pr
    3149        .dwattr $C$DW$252, DW_AT_decl_line(0x1b8)
    3150        .dwattr $C$DW$252, DW_AT_decl_column(0x0d)
    3151$C$DW$253       .dwtag  DW_TAG_member
    3152        .dwattr $C$DW$253, DW_AT_type(*$C$DW$T$11)
    3153        .dwattr $C$DW$253, DW_AT_name("rsvd28")
    3154        .dwattr $C$DW$253, DW_AT_TI_symbol_name("rsvd28")
    3155        .dwattr $C$DW$253, DW_AT_bit_offset(0x00), DW_AT_bit_size(0x04)
    3156        .dwattr $C$DW$253, DW_AT_data_member_location[DW_OP_plus_uconst 0x0]
    3157        .dwattr $C$DW$253, DW_AT_accessibility(DW_ACCESS_public)
    3158        .dwattr $C$DW$253, DW_AT_decl_file("/usr/lib/ti/pru-software-support-package/include/am335x/pr
    3159        .dwattr $C$DW$253, DW_AT_decl_line(0x1b9)
    3160        .dwattr $C$DW$253, DW_AT_decl_column(0x0d)
    3161        .dwendtag $C$DW$T$64
    3162
    3163        .dwattr $C$DW$T$64, DW_AT_decl_file("/usr/lib/ti/pru-software-support-package/include/am335x/p
    3164        .dwattr $C$DW$T$64, DW_AT_decl_line(0x1b1)
    3165        .dwattr $C$DW$T$64, DW_AT_decl_column(0x13)
    3166$C$DW$T$190     .dwtag  DW_TAG_volatile_type
    3167        .dwattr $C$DW$T$190, DW_AT_type(*$C$DW$T$64)
    3168
    3169$C$DW$T$65      .dwtag  DW_TAG_structure_type
    3170        .dwattr $C$DW$T$65, DW_AT_byte_size(0x04)
    3171$C$DW$254       .dwtag  DW_TAG_member
PRU Assembler Unix v2.1.4 Fri Apr 13 06:28:55 2018

Tools Copyright (c) 2012-2015 Texas Instruments Incorporated
main.asm                                                             PAGE   59

    3172        .dwattr $C$DW$254, DW_AT_type(*$C$DW$T$11)
    3173        .dwattr $C$DW$254, DW_AT_name("CH_MAP_40")
    3174        .dwattr $C$DW$254, DW_AT_TI_symbol_name("CH_MAP_40")
    3175        .dwattr $C$DW$254, DW_AT_bit_offset(0x1c), DW_AT_bit_size(0x04)
    3176        .dwattr $C$DW$254, DW_AT_data_member_location[DW_OP_plus_uconst 0x0]
    3177        .dwattr $C$DW$254, DW_AT_accessibility(DW_ACCESS_public)
    3178        .dwattr $C$DW$254, DW_AT_decl_file("/usr/lib/ti/pru-software-support-package/include/am335x/pr
    3179        .dwattr $C$DW$254, DW_AT_decl_line(0x1c3)
    3180        .dwattr $C$DW$254, DW_AT_decl_column(0x0d)
    3181$C$DW$255       .dwtag  DW_TAG_member
    3182        .dwattr $C$DW$255, DW_AT_type(*$C$DW$T$11)
    3183        .dwattr $C$DW$255, DW_AT_name("rsvd4")
    3184        .dwattr $C$DW$255, DW_AT_TI_symbol_name("rsvd4")
    3185        .dwattr $C$DW$255, DW_AT_bit_offset(0x18), DW_AT_bit_size(0x04)
    3186        .dwattr $C$DW$255, DW_AT_data_member_location[DW_OP_plus_uconst 0x0]
    3187        .dwattr $C$DW$255, DW_AT_accessibility(DW_ACCESS_public)
    3188        .dwattr $C$DW$255, DW_AT_decl_file("/usr/lib/ti/pru-software-support-package/include/am335x/pr
    3189        .dwattr $C$DW$255, DW_AT_decl_line(0x1c4)
    3190        .dwattr $C$DW$255, DW_AT_decl_column(0x0d)
    3191$C$DW$256       .dwtag  DW_TAG_member
    3192        .dwattr $C$DW$256, DW_AT_type(*$C$DW$T$11)
    3193        .dwattr $C$DW$256, DW_AT_name("CH_MAP_41")
    3194        .dwattr $C$DW$256, DW_AT_TI_symbol_name("CH_MAP_41")
    3195        .dwattr $C$DW$256, DW_AT_bit_offset(0x14), DW_AT_bit_size(0x04)
    3196        .dwattr $C$DW$256, DW_AT_data_member_location[DW_OP_plus_uconst 0x0]
    3197        .dwattr $C$DW$256, DW_AT_accessibility(DW_ACCESS_public)
    3198        .dwattr $C$DW$256, DW_AT_decl_file("/usr/lib/ti/pru-software-support-package/include/am335x/pr
    3199        .dwattr $C$DW$256, DW_AT_decl_line(0x1c5)
    3200        .dwattr $C$DW$256, DW_AT_decl_column(0x0d)
    3201$C$DW$257       .dwtag  DW_TAG_member
    3202        .dwattr $C$DW$257, DW_AT_type(*$C$DW$T$11)
    3203        .dwattr $C$DW$257, DW_AT_name("rsvd12")
    3204        .dwattr $C$DW$257, DW_AT_TI_symbol_name("rsvd12")
    3205        .dwattr $C$DW$257, DW_AT_bit_offset(0x10), DW_AT_bit_size(0x04)
    3206        .dwattr $C$DW$257, DW_AT_data_member_location[DW_OP_plus_uconst 0x0]
    3207        .dwattr $C$DW$257, DW_AT_accessibility(DW_ACCESS_public)
    3208        .dwattr $C$DW$257, DW_AT_decl_file("/usr/lib/ti/pru-software-support-package/include/am335x/pr
    3209        .dwattr $C$DW$257, DW_AT_decl_line(0x1c6)
    3210        .dwattr $C$DW$257, DW_AT_decl_column(0x0d)
    3211$C$DW$258       .dwtag  DW_TAG_member
    3212        .dwattr $C$DW$258, DW_AT_type(*$C$DW$T$11)
    3213        .dwattr $C$DW$258, DW_AT_name("CH_MAP_42")
    3214        .dwattr $C$DW$258, DW_AT_TI_symbol_name("CH_MAP_42")
    3215        .dwattr $C$DW$258, DW_AT_bit_offset(0x0c), DW_AT_bit_size(0x04)
    3216        .dwattr $C$DW$258, DW_AT_data_member_location[DW_OP_plus_uconst 0x0]
    3217        .dwattr $C$DW$258, DW_AT_accessibility(DW_ACCESS_public)
    3218        .dwattr $C$DW$258, DW_AT_decl_file("/usr/lib/ti/pru-software-support-package/include/am335x/pr
    3219        .dwattr $C$DW$258, DW_AT_decl_line(0x1c7)
    3220        .dwattr $C$DW$258, DW_AT_decl_column(0x0d)
    3221$C$DW$259       .dwtag  DW_TAG_member
    3222        .dwattr $C$DW$259, DW_AT_type(*$C$DW$T$11)
    3223        .dwattr $C$DW$259, DW_AT_name("rsvd20")
    3224        .dwattr $C$DW$259, DW_AT_TI_symbol_name("rsvd20")
    3225        .dwattr $C$DW$259, DW_AT_bit_offset(0x08), DW_AT_bit_size(0x04)
    3226        .dwattr $C$DW$259, DW_AT_data_member_location[DW_OP_plus_uconst 0x0]
PRU Assembler Unix v2.1.4 Fri Apr 13 06:28:55 2018

Tools Copyright (c) 2012-2015 Texas Instruments Incorporated
main.asm                                                             PAGE   60

    3227        .dwattr $C$DW$259, DW_AT_accessibility(DW_ACCESS_public)
    3228        .dwattr $C$DW$259, DW_AT_decl_file("/usr/lib/ti/pru-software-support-package/include/am335x/pr
    3229        .dwattr $C$DW$259, DW_AT_decl_line(0x1c8)
    3230        .dwattr $C$DW$259, DW_AT_decl_column(0x0d)
    3231$C$DW$260       .dwtag  DW_TAG_member
    3232        .dwattr $C$DW$260, DW_AT_type(*$C$DW$T$11)
    3233        .dwattr $C$DW$260, DW_AT_name("CH_MAP_43")
    3234        .dwattr $C$DW$260, DW_AT_TI_symbol_name("CH_MAP_43")
    3235        .dwattr $C$DW$260, DW_AT_bit_offset(0x04), DW_AT_bit_size(0x04)
    3236        .dwattr $C$DW$260, DW_AT_data_member_location[DW_OP_plus_uconst 0x0]
    3237        .dwattr $C$DW$260, DW_AT_accessibility(DW_ACCESS_public)
    3238        .dwattr $C$DW$260, DW_AT_decl_file("/usr/lib/ti/pru-software-support-package/include/am335x/pr
    3239        .dwattr $C$DW$260, DW_AT_decl_line(0x1c9)
    3240        .dwattr $C$DW$260, DW_AT_decl_column(0x0d)
    3241$C$DW$261       .dwtag  DW_TAG_member
    3242        .dwattr $C$DW$261, DW_AT_type(*$C$DW$T$11)
    3243        .dwattr $C$DW$261, DW_AT_name("rsvd28")
    3244        .dwattr $C$DW$261, DW_AT_TI_symbol_name("rsvd28")
    3245        .dwattr $C$DW$261, DW_AT_bit_offset(0x00), DW_AT_bit_size(0x04)
    3246        .dwattr $C$DW$261, DW_AT_data_member_location[DW_OP_plus_uconst 0x0]
    3247        .dwattr $C$DW$261, DW_AT_accessibility(DW_ACCESS_public)
    3248        .dwattr $C$DW$261, DW_AT_decl_file("/usr/lib/ti/pru-software-support-package/include/am335x/pr
    3249        .dwattr $C$DW$261, DW_AT_decl_line(0x1ca)
    3250        .dwattr $C$DW$261, DW_AT_decl_column(0x0d)
    3251        .dwendtag $C$DW$T$65
    3252
    3253        .dwattr $C$DW$T$65, DW_AT_decl_file("/usr/lib/ti/pru-software-support-package/include/am335x/p
    3254        .dwattr $C$DW$T$65, DW_AT_decl_line(0x1c2)
    3255        .dwattr $C$DW$T$65, DW_AT_decl_column(0x13)
    3256$C$DW$T$192     .dwtag  DW_TAG_volatile_type
    3257        .dwattr $C$DW$T$192, DW_AT_type(*$C$DW$T$65)
    3258
    3259$C$DW$T$66      .dwtag  DW_TAG_structure_type
    3260        .dwattr $C$DW$T$66, DW_AT_byte_size(0x04)
    3261$C$DW$262       .dwtag  DW_TAG_member
    3262        .dwattr $C$DW$262, DW_AT_type(*$C$DW$T$11)
    3263        .dwattr $C$DW$262, DW_AT_name("CH_MAP_44")
    3264        .dwattr $C$DW$262, DW_AT_TI_symbol_name("CH_MAP_44")
    3265        .dwattr $C$DW$262, DW_AT_bit_offset(0x1c), DW_AT_bit_size(0x04)
    3266        .dwattr $C$DW$262, DW_AT_data_member_location[DW_OP_plus_uconst 0x0]
    3267        .dwattr $C$DW$262, DW_AT_accessibility(DW_ACCESS_public)
    3268        .dwattr $C$DW$262, DW_AT_decl_file("/usr/lib/ti/pru-software-support-package/include/am335x/pr
    3269        .dwattr $C$DW$262, DW_AT_decl_line(0x1d4)
    3270        .dwattr $C$DW$262, DW_AT_decl_column(0x0d)
    3271$C$DW$263       .dwtag  DW_TAG_member
    3272        .dwattr $C$DW$263, DW_AT_type(*$C$DW$T$11)
    3273        .dwattr $C$DW$263, DW_AT_name("rsvd4")
    3274        .dwattr $C$DW$263, DW_AT_TI_symbol_name("rsvd4")
    3275        .dwattr $C$DW$263, DW_AT_bit_offset(0x18), DW_AT_bit_size(0x04)
    3276        .dwattr $C$DW$263, DW_AT_data_member_location[DW_OP_plus_uconst 0x0]
    3277        .dwattr $C$DW$263, DW_AT_accessibility(DW_ACCESS_public)
    3278        .dwattr $C$DW$263, DW_AT_decl_file("/usr/lib/ti/pru-software-support-package/include/am335x/pr
    3279        .dwattr $C$DW$263, DW_AT_decl_line(0x1d5)
    3280        .dwattr $C$DW$263, DW_AT_decl_column(0x0d)
    3281$C$DW$264       .dwtag  DW_TAG_member
PRU Assembler Unix v2.1.4 Fri Apr 13 06:28:55 2018

Tools Copyright (c) 2012-2015 Texas Instruments Incorporated
main.asm                                                             PAGE   61

    3282        .dwattr $C$DW$264, DW_AT_type(*$C$DW$T$11)
    3283        .dwattr $C$DW$264, DW_AT_name("CH_MAP_45")
    3284        .dwattr $C$DW$264, DW_AT_TI_symbol_name("CH_MAP_45")
    3285        .dwattr $C$DW$264, DW_AT_bit_offset(0x14), DW_AT_bit_size(0x04)
    3286        .dwattr $C$DW$264, DW_AT_data_member_location[DW_OP_plus_uconst 0x0]
    3287        .dwattr $C$DW$264, DW_AT_accessibility(DW_ACCESS_public)
    3288        .dwattr $C$DW$264, DW_AT_decl_file("/usr/lib/ti/pru-software-support-package/include/am335x/pr
    3289        .dwattr $C$DW$264, DW_AT_decl_line(0x1d6)
    3290        .dwattr $C$DW$264, DW_AT_decl_column(0x0d)
    3291$C$DW$265       .dwtag  DW_TAG_member
    3292        .dwattr $C$DW$265, DW_AT_type(*$C$DW$T$11)
    3293        .dwattr $C$DW$265, DW_AT_name("rsvd12")
    3294        .dwattr $C$DW$265, DW_AT_TI_symbol_name("rsvd12")
    3295        .dwattr $C$DW$265, DW_AT_bit_offset(0x10), DW_AT_bit_size(0x04)
    3296        .dwattr $C$DW$265, DW_AT_data_member_location[DW_OP_plus_uconst 0x0]
    3297        .dwattr $C$DW$265, DW_AT_accessibility(DW_ACCESS_public)
    3298        .dwattr $C$DW$265, DW_AT_decl_file("/usr/lib/ti/pru-software-support-package/include/am335x/pr
    3299        .dwattr $C$DW$265, DW_AT_decl_line(0x1d7)
    3300        .dwattr $C$DW$265, DW_AT_decl_column(0x0d)
    3301$C$DW$266       .dwtag  DW_TAG_member
    3302        .dwattr $C$DW$266, DW_AT_type(*$C$DW$T$11)
    3303        .dwattr $C$DW$266, DW_AT_name("CH_MAP_46")
    3304        .dwattr $C$DW$266, DW_AT_TI_symbol_name("CH_MAP_46")
    3305        .dwattr $C$DW$266, DW_AT_bit_offset(0x0c), DW_AT_bit_size(0x04)
    3306        .dwattr $C$DW$266, DW_AT_data_member_location[DW_OP_plus_uconst 0x0]
    3307        .dwattr $C$DW$266, DW_AT_accessibility(DW_ACCESS_public)
    3308        .dwattr $C$DW$266, DW_AT_decl_file("/usr/lib/ti/pru-software-support-package/include/am335x/pr
    3309        .dwattr $C$DW$266, DW_AT_decl_line(0x1d8)
    3310        .dwattr $C$DW$266, DW_AT_decl_column(0x0d)
    3311$C$DW$267       .dwtag  DW_TAG_member
    3312        .dwattr $C$DW$267, DW_AT_type(*$C$DW$T$11)
    3313        .dwattr $C$DW$267, DW_AT_name("rsvd20")
    3314        .dwattr $C$DW$267, DW_AT_TI_symbol_name("rsvd20")
    3315        .dwattr $C$DW$267, DW_AT_bit_offset(0x08), DW_AT_bit_size(0x04)
    3316        .dwattr $C$DW$267, DW_AT_data_member_location[DW_OP_plus_uconst 0x0]
    3317        .dwattr $C$DW$267, DW_AT_accessibility(DW_ACCESS_public)
    3318        .dwattr $C$DW$267, DW_AT_decl_file("/usr/lib/ti/pru-software-support-package/include/am335x/pr
    3319        .dwattr $C$DW$267, DW_AT_decl_line(0x1d9)
    3320        .dwattr $C$DW$267, DW_AT_decl_column(0x0d)
    3321$C$DW$268       .dwtag  DW_TAG_member
    3322        .dwattr $C$DW$268, DW_AT_type(*$C$DW$T$11)
    3323        .dwattr $C$DW$268, DW_AT_name("CH_MAP_47")
    3324        .dwattr $C$DW$268, DW_AT_TI_symbol_name("CH_MAP_47")
    3325        .dwattr $C$DW$268, DW_AT_bit_offset(0x04), DW_AT_bit_size(0x04)
    3326        .dwattr $C$DW$268, DW_AT_data_member_location[DW_OP_plus_uconst 0x0]
    3327        .dwattr $C$DW$268, DW_AT_accessibility(DW_ACCESS_public)
    3328        .dwattr $C$DW$268, DW_AT_decl_file("/usr/lib/ti/pru-software-support-package/include/am335x/pr
    3329        .dwattr $C$DW$268, DW_AT_decl_line(0x1da)
    3330        .dwattr $C$DW$268, DW_AT_decl_column(0x0d)
    3331$C$DW$269       .dwtag  DW_TAG_member
    3332        .dwattr $C$DW$269, DW_AT_type(*$C$DW$T$11)
    3333        .dwattr $C$DW$269, DW_AT_name("rsvd28")
    3334        .dwattr $C$DW$269, DW_AT_TI_symbol_name("rsvd28")
    3335        .dwattr $C$DW$269, DW_AT_bit_offset(0x00), DW_AT_bit_size(0x04)
    3336        .dwattr $C$DW$269, DW_AT_data_member_location[DW_OP_plus_uconst 0x0]
PRU Assembler Unix v2.1.4 Fri Apr 13 06:28:55 2018

Tools Copyright (c) 2012-2015 Texas Instruments Incorporated
main.asm                                                             PAGE   62

    3337        .dwattr $C$DW$269, DW_AT_accessibility(DW_ACCESS_public)
    3338        .dwattr $C$DW$269, DW_AT_decl_file("/usr/lib/ti/pru-software-support-package/include/am335x/pr
    3339        .dwattr $C$DW$269, DW_AT_decl_line(0x1db)
    3340        .dwattr $C$DW$269, DW_AT_decl_column(0x0d)
    3341        .dwendtag $C$DW$T$66
    3342
    3343        .dwattr $C$DW$T$66, DW_AT_decl_file("/usr/lib/ti/pru-software-support-package/include/am335x/p
    3344        .dwattr $C$DW$T$66, DW_AT_decl_line(0x1d3)
    3345        .dwattr $C$DW$T$66, DW_AT_decl_column(0x13)
    3346$C$DW$T$194     .dwtag  DW_TAG_volatile_type
    3347        .dwattr $C$DW$T$194, DW_AT_type(*$C$DW$T$66)
    3348
    3349$C$DW$T$67      .dwtag  DW_TAG_structure_type
    3350        .dwattr $C$DW$T$67, DW_AT_byte_size(0x04)
    3351$C$DW$270       .dwtag  DW_TAG_member
    3352        .dwattr $C$DW$270, DW_AT_type(*$C$DW$T$11)
    3353        .dwattr $C$DW$270, DW_AT_name("CH_MAP_48")
    3354        .dwattr $C$DW$270, DW_AT_TI_symbol_name("CH_MAP_48")
    3355        .dwattr $C$DW$270, DW_AT_bit_offset(0x1c), DW_AT_bit_size(0x04)
    3356        .dwattr $C$DW$270, DW_AT_data_member_location[DW_OP_plus_uconst 0x0]
    3357        .dwattr $C$DW$270, DW_AT_accessibility(DW_ACCESS_public)
    3358        .dwattr $C$DW$270, DW_AT_decl_file("/usr/lib/ti/pru-software-support-package/include/am335x/pr
    3359        .dwattr $C$DW$270, DW_AT_decl_line(0x1e5)
    3360        .dwattr $C$DW$270, DW_AT_decl_column(0x0d)
    3361$C$DW$271       .dwtag  DW_TAG_member
    3362        .dwattr $C$DW$271, DW_AT_type(*$C$DW$T$11)
    3363        .dwattr $C$DW$271, DW_AT_name("rsvd4")
    3364        .dwattr $C$DW$271, DW_AT_TI_symbol_name("rsvd4")
    3365        .dwattr $C$DW$271, DW_AT_bit_offset(0x18), DW_AT_bit_size(0x04)
    3366        .dwattr $C$DW$271, DW_AT_data_member_location[DW_OP_plus_uconst 0x0]
    3367        .dwattr $C$DW$271, DW_AT_accessibility(DW_ACCESS_public)
    3368        .dwattr $C$DW$271, DW_AT_decl_file("/usr/lib/ti/pru-software-support-package/include/am335x/pr
    3369        .dwattr $C$DW$271, DW_AT_decl_line(0x1e6)
    3370        .dwattr $C$DW$271, DW_AT_decl_column(0x0d)
    3371$C$DW$272       .dwtag  DW_TAG_member
    3372        .dwattr $C$DW$272, DW_AT_type(*$C$DW$T$11)
    3373        .dwattr $C$DW$272, DW_AT_name("CH_MAP_49")
    3374        .dwattr $C$DW$272, DW_AT_TI_symbol_name("CH_MAP_49")
    3375        .dwattr $C$DW$272, DW_AT_bit_offset(0x14), DW_AT_bit_size(0x04)
    3376        .dwattr $C$DW$272, DW_AT_data_member_location[DW_OP_plus_uconst 0x0]
    3377        .dwattr $C$DW$272, DW_AT_accessibility(DW_ACCESS_public)
    3378        .dwattr $C$DW$272, DW_AT_decl_file("/usr/lib/ti/pru-software-support-package/include/am335x/pr
    3379        .dwattr $C$DW$272, DW_AT_decl_line(0x1e7)
    3380        .dwattr $C$DW$272, DW_AT_decl_column(0x0d)
    3381$C$DW$273       .dwtag  DW_TAG_member
    3382        .dwattr $C$DW$273, DW_AT_type(*$C$DW$T$11)
    3383        .dwattr $C$DW$273, DW_AT_name("rsvd12")
    3384        .dwattr $C$DW$273, DW_AT_TI_symbol_name("rsvd12")
    3385        .dwattr $C$DW$273, DW_AT_bit_offset(0x10), DW_AT_bit_size(0x04)
    3386        .dwattr $C$DW$273, DW_AT_data_member_location[DW_OP_plus_uconst 0x0]
    3387        .dwattr $C$DW$273, DW_AT_accessibility(DW_ACCESS_public)
    3388        .dwattr $C$DW$273, DW_AT_decl_file("/usr/lib/ti/pru-software-support-package/include/am335x/pr
    3389        .dwattr $C$DW$273, DW_AT_decl_line(0x1e8)
    3390        .dwattr $C$DW$273, DW_AT_decl_column(0x0d)
    3391$C$DW$274       .dwtag  DW_TAG_member
PRU Assembler Unix v2.1.4 Fri Apr 13 06:28:55 2018

Tools Copyright (c) 2012-2015 Texas Instruments Incorporated
main.asm                                                             PAGE   63

    3392        .dwattr $C$DW$274, DW_AT_type(*$C$DW$T$11)
    3393        .dwattr $C$DW$274, DW_AT_name("CH_MAP_50")
    3394        .dwattr $C$DW$274, DW_AT_TI_symbol_name("CH_MAP_50")
    3395        .dwattr $C$DW$274, DW_AT_bit_offset(0x0c), DW_AT_bit_size(0x04)
    3396        .dwattr $C$DW$274, DW_AT_data_member_location[DW_OP_plus_uconst 0x0]
    3397        .dwattr $C$DW$274, DW_AT_accessibility(DW_ACCESS_public)
    3398        .dwattr $C$DW$274, DW_AT_decl_file("/usr/lib/ti/pru-software-support-package/include/am335x/pr
    3399        .dwattr $C$DW$274, DW_AT_decl_line(0x1e9)
    3400        .dwattr $C$DW$274, DW_AT_decl_column(0x0d)
    3401$C$DW$275       .dwtag  DW_TAG_member
    3402        .dwattr $C$DW$275, DW_AT_type(*$C$DW$T$11)
    3403        .dwattr $C$DW$275, DW_AT_name("rsvd20")
    3404        .dwattr $C$DW$275, DW_AT_TI_symbol_name("rsvd20")
    3405        .dwattr $C$DW$275, DW_AT_bit_offset(0x08), DW_AT_bit_size(0x04)
    3406        .dwattr $C$DW$275, DW_AT_data_member_location[DW_OP_plus_uconst 0x0]
    3407        .dwattr $C$DW$275, DW_AT_accessibility(DW_ACCESS_public)
    3408        .dwattr $C$DW$275, DW_AT_decl_file("/usr/lib/ti/pru-software-support-package/include/am335x/pr
    3409        .dwattr $C$DW$275, DW_AT_decl_line(0x1ea)
    3410        .dwattr $C$DW$275, DW_AT_decl_column(0x0d)
    3411$C$DW$276       .dwtag  DW_TAG_member
    3412        .dwattr $C$DW$276, DW_AT_type(*$C$DW$T$11)
    3413        .dwattr $C$DW$276, DW_AT_name("CH_MAP_51")
    3414        .dwattr $C$DW$276, DW_AT_TI_symbol_name("CH_MAP_51")
    3415        .dwattr $C$DW$276, DW_AT_bit_offset(0x04), DW_AT_bit_size(0x04)
    3416        .dwattr $C$DW$276, DW_AT_data_member_location[DW_OP_plus_uconst 0x0]
    3417        .dwattr $C$DW$276, DW_AT_accessibility(DW_ACCESS_public)
    3418        .dwattr $C$DW$276, DW_AT_decl_file("/usr/lib/ti/pru-software-support-package/include/am335x/pr
    3419        .dwattr $C$DW$276, DW_AT_decl_line(0x1eb)
    3420        .dwattr $C$DW$276, DW_AT_decl_column(0x0d)
    3421$C$DW$277       .dwtag  DW_TAG_member
    3422        .dwattr $C$DW$277, DW_AT_type(*$C$DW$T$11)
    3423        .dwattr $C$DW$277, DW_AT_name("rsvd28")
    3424        .dwattr $C$DW$277, DW_AT_TI_symbol_name("rsvd28")
    3425        .dwattr $C$DW$277, DW_AT_bit_offset(0x00), DW_AT_bit_size(0x04)
    3426        .dwattr $C$DW$277, DW_AT_data_member_location[DW_OP_plus_uconst 0x0]
    3427        .dwattr $C$DW$277, DW_AT_accessibility(DW_ACCESS_public)
    3428        .dwattr $C$DW$277, DW_AT_decl_file("/usr/lib/ti/pru-software-support-package/include/am335x/pr
    3429        .dwattr $C$DW$277, DW_AT_decl_line(0x1ec)
    3430        .dwattr $C$DW$277, DW_AT_decl_column(0x0d)
    3431        .dwendtag $C$DW$T$67
    3432
    3433        .dwattr $C$DW$T$67, DW_AT_decl_file("/usr/lib/ti/pru-software-support-package/include/am335x/p
    3434        .dwattr $C$DW$T$67, DW_AT_decl_line(0x1e4)
    3435        .dwattr $C$DW$T$67, DW_AT_decl_column(0x13)
    3436$C$DW$T$196     .dwtag  DW_TAG_volatile_type
    3437        .dwattr $C$DW$T$196, DW_AT_type(*$C$DW$T$67)
    3438
    3439$C$DW$T$68      .dwtag  DW_TAG_structure_type
    3440        .dwattr $C$DW$T$68, DW_AT_byte_size(0x04)
    3441$C$DW$278       .dwtag  DW_TAG_member
    3442        .dwattr $C$DW$278, DW_AT_type(*$C$DW$T$11)
    3443        .dwattr $C$DW$278, DW_AT_name("CH_MAP_52")
    3444        .dwattr $C$DW$278, DW_AT_TI_symbol_name("CH_MAP_52")
    3445        .dwattr $C$DW$278, DW_AT_bit_offset(0x1c), DW_AT_bit_size(0x04)
    3446        .dwattr $C$DW$278, DW_AT_data_member_location[DW_OP_plus_uconst 0x0]
PRU Assembler Unix v2.1.4 Fri Apr 13 06:28:55 2018

Tools Copyright (c) 2012-2015 Texas Instruments Incorporated
main.asm                                                             PAGE   64

    3447        .dwattr $C$DW$278, DW_AT_accessibility(DW_ACCESS_public)
    3448        .dwattr $C$DW$278, DW_AT_decl_file("/usr/lib/ti/pru-software-support-package/include/am335x/pr
    3449        .dwattr $C$DW$278, DW_AT_decl_line(0x1f6)
    3450        .dwattr $C$DW$278, DW_AT_decl_column(0x0d)
    3451$C$DW$279       .dwtag  DW_TAG_member
    3452        .dwattr $C$DW$279, DW_AT_type(*$C$DW$T$11)
    3453        .dwattr $C$DW$279, DW_AT_name("rsvd4")
    3454        .dwattr $C$DW$279, DW_AT_TI_symbol_name("rsvd4")
    3455        .dwattr $C$DW$279, DW_AT_bit_offset(0x18), DW_AT_bit_size(0x04)
    3456        .dwattr $C$DW$279, DW_AT_data_member_location[DW_OP_plus_uconst 0x0]
    3457        .dwattr $C$DW$279, DW_AT_accessibility(DW_ACCESS_public)
    3458        .dwattr $C$DW$279, DW_AT_decl_file("/usr/lib/ti/pru-software-support-package/include/am335x/pr
    3459        .dwattr $C$DW$279, DW_AT_decl_line(0x1f7)
    3460        .dwattr $C$DW$279, DW_AT_decl_column(0x0d)
    3461$C$DW$280       .dwtag  DW_TAG_member
    3462        .dwattr $C$DW$280, DW_AT_type(*$C$DW$T$11)
    3463        .dwattr $C$DW$280, DW_AT_name("CH_MAP_53")
    3464        .dwattr $C$DW$280, DW_AT_TI_symbol_name("CH_MAP_53")
    3465        .dwattr $C$DW$280, DW_AT_bit_offset(0x14), DW_AT_bit_size(0x04)
    3466        .dwattr $C$DW$280, DW_AT_data_member_location[DW_OP_plus_uconst 0x0]
    3467        .dwattr $C$DW$280, DW_AT_accessibility(DW_ACCESS_public)
    3468        .dwattr $C$DW$280, DW_AT_decl_file("/usr/lib/ti/pru-software-support-package/include/am335x/pr
    3469        .dwattr $C$DW$280, DW_AT_decl_line(0x1f8)
    3470        .dwattr $C$DW$280, DW_AT_decl_column(0x0d)
    3471$C$DW$281       .dwtag  DW_TAG_member
    3472        .dwattr $C$DW$281, DW_AT_type(*$C$DW$T$11)
    3473        .dwattr $C$DW$281, DW_AT_name("rsvd12")
    3474        .dwattr $C$DW$281, DW_AT_TI_symbol_name("rsvd12")
    3475        .dwattr $C$DW$281, DW_AT_bit_offset(0x10), DW_AT_bit_size(0x04)
    3476        .dwattr $C$DW$281, DW_AT_data_member_location[DW_OP_plus_uconst 0x0]
    3477        .dwattr $C$DW$281, DW_AT_accessibility(DW_ACCESS_public)
    3478        .dwattr $C$DW$281, DW_AT_decl_file("/usr/lib/ti/pru-software-support-package/include/am335x/pr
    3479        .dwattr $C$DW$281, DW_AT_decl_line(0x1f9)
    3480        .dwattr $C$DW$281, DW_AT_decl_column(0x0d)
    3481$C$DW$282       .dwtag  DW_TAG_member
    3482        .dwattr $C$DW$282, DW_AT_type(*$C$DW$T$11)
    3483        .dwattr $C$DW$282, DW_AT_name("CH_MAP_54")
    3484        .dwattr $C$DW$282, DW_AT_TI_symbol_name("CH_MAP_54")
    3485        .dwattr $C$DW$282, DW_AT_bit_offset(0x0c), DW_AT_bit_size(0x04)
    3486        .dwattr $C$DW$282, DW_AT_data_member_location[DW_OP_plus_uconst 0x0]
    3487        .dwattr $C$DW$282, DW_AT_accessibility(DW_ACCESS_public)
    3488        .dwattr $C$DW$282, DW_AT_decl_file("/usr/lib/ti/pru-software-support-package/include/am335x/pr
    3489        .dwattr $C$DW$282, DW_AT_decl_line(0x1fa)
    3490        .dwattr $C$DW$282, DW_AT_decl_column(0x0d)
    3491$C$DW$283       .dwtag  DW_TAG_member
    3492        .dwattr $C$DW$283, DW_AT_type(*$C$DW$T$11)
    3493        .dwattr $C$DW$283, DW_AT_name("rsvd20")
    3494        .dwattr $C$DW$283, DW_AT_TI_symbol_name("rsvd20")
    3495        .dwattr $C$DW$283, DW_AT_bit_offset(0x08), DW_AT_bit_size(0x04)
    3496        .dwattr $C$DW$283, DW_AT_data_member_location[DW_OP_plus_uconst 0x0]
    3497        .dwattr $C$DW$283, DW_AT_accessibility(DW_ACCESS_public)
    3498        .dwattr $C$DW$283, DW_AT_decl_file("/usr/lib/ti/pru-software-support-package/include/am335x/pr
    3499        .dwattr $C$DW$283, DW_AT_decl_line(0x1fb)
    3500        .dwattr $C$DW$283, DW_AT_decl_column(0x0d)
    3501$C$DW$284       .dwtag  DW_TAG_member
PRU Assembler Unix v2.1.4 Fri Apr 13 06:28:55 2018

Tools Copyright (c) 2012-2015 Texas Instruments Incorporated
main.asm                                                             PAGE   65

    3502        .dwattr $C$DW$284, DW_AT_type(*$C$DW$T$11)
    3503        .dwattr $C$DW$284, DW_AT_name("CH_MAP_55")
    3504        .dwattr $C$DW$284, DW_AT_TI_symbol_name("CH_MAP_55")
    3505        .dwattr $C$DW$284, DW_AT_bit_offset(0x04), DW_AT_bit_size(0x04)
    3506        .dwattr $C$DW$284, DW_AT_data_member_location[DW_OP_plus_uconst 0x0]
    3507        .dwattr $C$DW$284, DW_AT_accessibility(DW_ACCESS_public)
    3508        .dwattr $C$DW$284, DW_AT_decl_file("/usr/lib/ti/pru-software-support-package/include/am335x/pr
    3509        .dwattr $C$DW$284, DW_AT_decl_line(0x1fc)
